Component: ARM Compiler 5.06 update 6 (build 750) Tool: armlink [4d35ed]

==============================================================================

Section Cross References

    clock.o(.text) refers to context_rvds.o(.text) for rt_hw_interrupt_disable
    clock.o(.text) refers to thread.o(.text) for rt_thread_self
    clock.o(.text) refers to timer.o(.text) for rt_timer_check
    clock.o(.text) refers to clock.o(.data) for rt_tick
    components.o(.text) refers to main.o(.text) for $Super$$main
    components.o(.text) refers to thread.o(.text) for rt_thread_create
    components.o(.text) refers to kservice.o(.text) for rt_assert_handler
    components.o(.text) refers to context_rvds.o(.text) for rt_hw_interrupt_disable
    components.o(.text) refers to board.o(.text) for rt_hw_board_init
    components.o(.text) refers to timer.o(.text) for rt_system_timer_init
    components.o(.text) refers to scheduler.o(.text) for rt_system_scheduler_init
    components.o(.text) refers to signal.o(.text) for rt_system_signal_init
    components.o(.text) refers to idle.o(.text) for rt_thread_idle_init
    components.o(.text) refers to components.o(.rti_fn.0.end) for __rt_init_rti_board_start
    components.o(.text) refers to components.o(.rti_fn.1.end) for __rt_init_rti_board_end
    components.o(.text) refers to components.o(.rti_fn.6.end) for __rt_init_rti_end
    components.o(.text) refers to components.o(.constdata) for __FUNCTION__
    components.o(.rti_fn.0) refers to components.o(.text) for rti_start
    components.o(.rti_fn.0.end) refers to components.o(.text) for rti_board_start
    components.o(.rti_fn.1.end) refers to components.o(.text) for rti_board_end
    components.o(.rti_fn.6.end) refers to components.o(.text) for rti_end
    device.o(.text) refers to thread.o(.text) for rt_thread_self
    device.o(.text) refers to scheduler.o(.text) for rt_enter_critical
    device.o(.text) refers to object.o(.text) for rt_object_get_information
    device.o(.text) refers to kservice.o(.text) for rt_assert_handler
    device.o(.text) refers to mem.o(.text) for rt_malloc
    device.o(.text) refers to device.o(.constdata) for __FUNCTION__
    idle.o(.text) refers to context_rvds.o(.text) for rt_hw_interrupt_disable
    idle.o(.text) refers to irq.o(.text) for rt_interrupt_get_nest
    idle.o(.text) refers to kservice.o(.text) for rt_kprintf
    idle.o(.text) refers to scheduler.o(.text) for rt_enter_critical
    idle.o(.text) refers to signal.o(.text) for rt_thread_free_sig
    idle.o(.text) refers to object.o(.text) for rt_object_is_systemobject
    idle.o(.text) refers to mem.o(.text) for rt_free
    idle.o(.text) refers to thread.o(.text) for rt_thread_init
    idle.o(.text) refers to idle.o(.bss) for idle_hook_list
    idle.o(.text) refers to idle.o(.constdata) for __FUNCTION__
    idle.o(.text) refers to scheduler.o(.data) for rt_thread_defunct
    ipc.o(.text) refers to thread.o(.text) for rt_thread_suspend
    ipc.o(.text) refers to context_rvds.o(.text) for rt_hw_interrupt_disable
    ipc.o(.text) refers to kservice.o(.text) for rt_assert_handler
    ipc.o(.text) refers to object.o(.text) for rt_object_init
    ipc.o(.text) refers to irq.o(.text) for rt_interrupt_get_nest
    ipc.o(.text) refers to timer.o(.text) for rt_timer_control
    ipc.o(.text) refers to scheduler.o(.text) for rt_schedule
    ipc.o(.text) refers to ipc.o(.constdata) for __FUNCTION__
    ipc.o(.text) refers to ipc.o(.conststring) for .conststring
    ipc.o(.text) refers to object.o(.data) for rt_object_trytake_hook
    ipc.o(.text) refers to mem.o(.text) for rt_malloc
    ipc.o(.text) refers to clock.o(.text) for rt_tick_get
    irq.o(.text) refers to context_rvds.o(.text) for rt_hw_interrupt_disable
    irq.o(.text) refers to irq.o(.data) for rt_interrupt_enter_hook
    kservice.o(.text) refers to irq.o(.text) for rt_interrupt_get_nest
    kservice.o(.text) refers to thread.o(.text) for rt_thread_self
    kservice.o(.text) refers to mem.o(.text) for rt_malloc
    kservice.o(.text) refers to kservice.o(.data) for __rt_errno
    kservice.o(.text) refers to kservice.o(.constdata) for large_digits
    kservice.o(.text) refers to device.o(.text) for rt_device_write
    kservice.o(.text) refers to kservice.o(.bss) for rt_log_buf
    mem.o(.text) refers to kservice.o(.text) for rt_assert_handler
    mem.o(.text) refers to context_rvds.o(.text) for rt_hw_interrupt_disable
    mem.o(.text) refers to irq.o(.text) for rt_interrupt_get_nest
    mem.o(.text) refers to ipc.o(.text) for rt_sem_init
    mem.o(.text) refers to mem.o(.data) for rt_malloc_hook
    mem.o(.text) refers to mem.o(.constdata) for __FUNCTION__
    mem.o(.text) refers to mem.o(.bss) for heap_sem
    mem.o(.text) refers to mem.o(.conststring) for .conststring
    mem.o(FSymTab) refers to mem.o(.rodata.name) for __fsym_list_mem_name
    mem.o(FSymTab) refers to mem.o(.text) for list_mem
    memheap.o(.text) refers to kservice.o(.text) for rt_assert_handler
    memheap.o(.text) refers to object.o(.text) for rt_object_init
    memheap.o(.text) refers to ipc.o(.text) for rt_sem_init
    memheap.o(.text) refers to memheap.o(.constdata) for __FUNCTION__
    mempool.o(.text) refers to kservice.o(.text) for rt_assert_handler
    mempool.o(.text) refers to object.o(.text) for rt_object_init
    mempool.o(.text) refers to context_rvds.o(.text) for rt_hw_interrupt_disable
    mempool.o(.text) refers to thread.o(.text) for rt_thread_resume
    mempool.o(.text) refers to irq.o(.text) for rt_interrupt_get_nest
    mempool.o(.text) refers to mem.o(.text) for rt_malloc
    mempool.o(.text) refers to clock.o(.text) for rt_tick_get
    mempool.o(.text) refers to timer.o(.text) for rt_timer_control
    mempool.o(.text) refers to scheduler.o(.text) for rt_schedule
    mempool.o(.text) refers to mempool.o(.data) for rt_mp_alloc_hook
    mempool.o(.text) refers to mempool.o(.constdata) for __FUNCTION__
    object.o(.text) refers to kservice.o(.text) for rt_assert_handler
    object.o(.text) refers to context_rvds.o(.text) for rt_hw_interrupt_disable
    object.o(.text) refers to irq.o(.text) for rt_interrupt_get_nest
    object.o(.text) refers to mem.o(.text) for rt_malloc
    object.o(.text) refers to scheduler.o(.text) for rt_enter_critical
    object.o(.text) refers to object.o(.data) for rt_object_attach_hook
    object.o(.text) refers to object.o(.constdata) for __FUNCTION__
    scheduler.o(.text) refers to kservice.o(.text) for rt_assert_handler
    scheduler.o(.text) refers to cmd.o(.text) for list_thread
    scheduler.o(.text) refers to context_rvds.o(.text) for rt_hw_interrupt_disable
    scheduler.o(.text) refers to signal.o(.text) for rt_thread_handle_sig
    scheduler.o(.text) refers to scheduler.o(.data) for rt_scheduler_hook
    scheduler.o(.text) refers to scheduler.o(.constdata) for __FUNCTION__
    scheduler.o(.text) refers to scheduler.o(.bss) for rt_thread_priority_table
    scheduler.o(.text) refers to irq.o(.data) for rt_interrupt_nest
    signal.o(.text) refers to thread.o(.text) for rt_thread_self
    signal.o(.text) refers to context_rvds.o(.text) for rt_hw_interrupt_disable
    signal.o(.text) refers to mempool.o(.text) for rt_mp_free
    signal.o(.text) refers to scheduler.o(.text) for rt_schedule
    signal.o(.text) refers to cpuport.o(.text) for rt_hw_stack_init
    signal.o(.text) refers to mem.o(.text) for rt_malloc
    signal.o(.text) refers to kservice.o(.text) for rt_assert_handler
    signal.o(.text) refers to irq.o(.text) for rt_interrupt_get_nest
    signal.o(.text) refers to timer.o(.text) for rt_timer_control
    signal.o(.text) refers to signal.o(.constdata) for __FUNCTION__
    signal.o(.text) refers to signal.o(.data) for _rt_siginfo_pool
    thread.o(.text) refers to context_rvds.o(.text) for rt_hw_interrupt_disable
    thread.o(.text) refers to scheduler.o(.text) for rt_schedule_remove_thread
    thread.o(.text) refers to timer.o(.text) for rt_timer_detach
    thread.o(.text) refers to object.o(.text) for rt_object_is_systemobject
    thread.o(.text) refers to kservice.o(.text) for rt_assert_handler
    thread.o(.text) refers to cpuport.o(.text) for rt_hw_stack_init
    thread.o(.text) refers to mem.o(.text) for rt_malloc
    thread.o(.text) refers to thread.o(.data) for rt_thread_suspend_hook
    thread.o(.text) refers to scheduler.o(.data) for rt_current_thread
    thread.o(.text) refers to thread.o(.constdata) for __FUNCTION__
    thread.o(.text) refers to thread.o(.conststring) for .conststring
    thread.o(.text) refers to clock.o(.text) for rt_tick_from_millisecond
    thread.o(.text) refers to scheduler.o(.bss) for rt_thread_priority_table
    timer.o(.text) refers to kservice.o(.text) for rt_assert_handler
    timer.o(.text) refers to object.o(.text) for rt_object_init
    timer.o(.text) refers to context_rvds.o(.text) for rt_hw_interrupt_disable
    timer.o(.text) refers to clock.o(.text) for rt_tick_get
    timer.o(.text) refers to thread.o(.text) for rt_thread_resume
    timer.o(.text) refers to scheduler.o(.text) for rt_schedule
    timer.o(.text) refers to timer.o(.data) for rt_timer_enter_hook
    timer.o(.text) refers to timer.o(.constdata) for __FUNCTION__
    timer.o(.text) refers to object.o(.data) for rt_object_take_hook
    timer.o(.text) refers to timer.o(.bss) for timer_thread
    cpuport.o(.text) refers to kservice.o(.text) for rt_kprintf
    cpuport.o(.text) refers to thread.o(.text) for rt_thread_self
    cpuport.o(.text) refers to cmd.o(.text) for list_thread
    cpuport.o(.text) refers to cpuport.o(.data) for rt_exception_hook
    cpuport.o(.text) refers to cpuport.o(.constdata) for __FUNCTION__
    context_rvds.o(.text) refers to cpuport.o(.text) for rt_hw_hard_fault_exception
    context_rvds.o(.text) refers to cpuport.o(.data) for rt_thread_switch_interrupt_flag
    showmem.o(.text) refers to kservice.o(.text) for rt_assert_handler
    showmem.o(.text) refers to showmem.o(.constdata) for __FUNCTION__
    24cxx.o(.text) refers to myiic.o(.text) for IIC_Init
    24cxx.o(.text) refers to public.o(.text) for Delay_ms
    24l01.o(.text) refers to stm32f1xx_hal_spi_ex.o(.text) for HAL_SPI_Init
    24l01.o(.text) refers to spi.o(.text) for SPI2_ReadWriteByte
    24l01.o(.text) refers to stm32f1xx_hal_gpio.o(.text) for HAL_GPIO_Init
    24l01.o(.text) refers to printfa.o(i.__0printf) for __2printf
    24l01.o(.text) refers to spi.o(.bss) for SPI2_Handler
    24l01.o(.text) refers to 24l01.o(.constdata) for RX_ADDRESS
    beep.o(.text) refers to stm32f1xx_hal_gpio.o(.text) for HAL_GPIO_Init
    beep.o(.text) refers to public.o(.text) for Delay_ms
    beep.o(.text) refers to thread.o(.text) for rt_thread_delay
    bsp_adc.o(.text) refers to stm32f1xx_hal_rcc_ex.o(.text) for HAL_RCCEx_PeriphCLKConfig
    bsp_adc.o(.text) refers to stm32f1xx_hal_adc.o(.text) for HAL_ADC_Init
    bsp_adc.o(.text) refers to kservice.o(.text) for rt_kprintf
    bsp_adc.o(.text) refers to stm32f1xx_hal_adc_ex.o(.text) for HAL_ADCEx_Calibration_Start
    bsp_adc.o(.text) refers to stm32f1xx_hal_gpio.o(.text) for HAL_GPIO_Init
    bsp_adc.o(.text) refers to thread.o(.text) for rt_thread_mdelay
    bsp_adc.o(.text) refers to dflti.o(.text) for __aeabi_i2d
    bsp_adc.o(.text) refers to dmul.o(.text) for __aeabi_dmul
    bsp_adc.o(.text) refers to d2f.o(.text) for __aeabi_d2f
    bsp_adc.o(.text) refers to f2d.o(.text) for __aeabi_f2d
    bsp_adc.o(.text) refers to cdrcmple.o(.text) for __aeabi_cdrcmple
    bsp_adc.o(.text) refers to bsp_adc.o(.bss) for hadc3
    bsp_ds18b20.o(.text) refers to stm32f1xx_hal_gpio.o(.text) for HAL_GPIO_WritePin
    bsp_ds18b20.o(.text) refers to fflti.o(.text) for __aeabi_i2f
    bsp_ds18b20.o(.text) refers to f2d.o(.text) for __aeabi_f2d
    bsp_ds18b20.o(.text) refers to dmul.o(.text) for __aeabi_dmul
    bsp_ds18b20.o(.text) refers to dadd.o(.text) for __aeabi_dadd
    bsp_ds18b20.o(.text) refers to d2f.o(.text) for __aeabi_d2f
    bsp_ds18b20.o(.text) refers to printfa.o(i.__0printf) for __2printf
    bsp_gsm.o(.text) refers to usart.o(.text) for usart2_senddata
    bsp_gsm.o(.text) refers to clock.o(.text) for rt_tick_get
    bsp_gsm.o(.text) refers to kservice.o(.text) for rt_kprintf
    bsp_gsm.o(.text) refers to printfa.o(i.__0printf) for __2printf
    bsp_gsm.o(.text) refers to memseta.o(.text) for __aeabi_memclr
    bsp_gsm.o(.text) refers to mem.o(.text) for rt_malloc
    bsp_gsm.o(.text) refers to printfa.o(i.__0sprintf) for __2sprintf
    bsp_gsm.o(.text) refers to usart.o(.data) for USART_RX2_STA
    bsp_gsm.o(.text) refers to usart.o(.bss) for USART_RX2_BUF
    bsp_gsm.o(.text) refers to bsp_gsm.o(.data) for prt
    bsp_gsm.o(.text) refers to main.o(.data) for temp
    bsp_gsm.o(.text) refers to f2d.o(.text) for __aeabi_f2d
    bsp_gsm.o(.text) refers to public.o(.text) for Get_decimal
    bsp_gsm.o(.text) refers to ffixui.o(.text) for __aeabi_f2uiz
    bsp_key.o(.text) refers to stm32f1xx_hal_gpio.o(.text) for HAL_GPIO_Init
    bsp_key.o(.text) refers to thread.o(.text) for rt_thread_mdelay
    bsp_key.o(.text) refers to bsp_key.o(.data) for key_up
    bsp_led.o(.text) refers to stm32f1xx_hal_gpio.o(.text) for HAL_GPIO_WritePin
    bsp_led.o(.text) refers to public.o(.text) for Delay_ms
    bsp_led.o(.text) refers to thread.o(.text) for rt_thread_delay
    bsp_led.o(.text) refers to bsp_ds18b20.o(.text) for DS18B20_Get_Temp
    bsp_led.o(.text) refers to f2d.o(.text) for __aeabi_f2d
    bsp_led.o(.text) refers to printfa.o(i.__0printf) for __2printf
    bsp_led.o(.text) refers to bsp_adc.o(.text) for get_aver_val
    bsp_led.o(.text) refers to scheduler.o(.text) for rt_enter_critical
    bsp_led.o(.text) refers to lcd.o(.text) for LCD_ShowString
    bsp_led.o(.text) refers to bsp_led.o(.data) for cnt
    bsp_led.o(.text) refers to lcd.o(.data) for POINT_COLOR
    bsp_rsd.o(.text) refers to stm32f1xx_hal_gpio.o(.text) for HAL_GPIO_Init
    bsp_timer.o(.text) refers to stm32f1xx_hal_tim.o(.text) for HAL_TIM_Base_Init
    bsp_timer.o(.text) refers to stm32f1xx_hal_cortex.o(.text) for HAL_NVIC_SetPriority
    bsp_timer.o(.text) refers to bsp_timer.o(.bss) for TIM5_Handler
    bsp_timer.o(.text) refers to usart.o(.data) for USART_RX2_STA
    bsp_wb.o(.text) refers to stm32f1xx_hal_gpio.o(.text) for HAL_GPIO_Init
    ctiic.o(.text) refers to delay.o(.text) for delay_us
    ctiic.o(.text) refers to stm32f1xx_hal_gpio.o(.text) for HAL_GPIO_Init
    delay.o(.text) refers to stm32f1xx_hal_rcc.o(.text) for HAL_RCC_GetHCLKFreq
    delay.o(.text) refers to stm32f1xx_hal_cortex.o(.text) for HAL_SYSTICK_CLKSourceConfig
    delay.o(.text) refers to delay.o(.data) for fac_us
    dht11.o(.text) refers to public.o(.text) for Delay_ms
    dht11.o(.text) refers to stm32f1xx_hal_gpio.o(.text) for HAL_GPIO_Init
    dm9000.o(.text) refers to public.o(.text) for Delay_ms
    dm9000.o(.text) refers to stm32f1xx_hal_gpio.o(.text) for HAL_GPIO_Init
    dm9000.o(.text) refers to stm32f1xx_hal_cortex.o(.text) for HAL_NVIC_SetPriority
    dm9000.o(.text) refers to stm32f1xx_hal_sram.o(.text) for HAL_SRAM_Init
    dm9000.o(.text) refers to printfa.o(i.__0printf) for __2printf
    dm9000.o(.text) refers to dm9000.o(.bss) for dm9000cfg
    dm9000.o(.text) refers to scheduler.o(.text) for rt_enter_critical
    dm9000.o(.text) refers to ipc.o(.text) for rt_sem_take
    dm9000.o(.text) refers to pbuf.o(.text) for pbuf_alloc
    dm9000.o(.text) refers to lwip_comm.o(.data) for dm9000lock
    ft5206.o(.text) refers to ctiic.o(.text) for CT_IIC_Start
    ft5206.o(.text) refers to stm32f1xx_hal_gpio.o(.text) for HAL_GPIO_Init
    ft5206.o(.text) refers to delay.o(.text) for delay_ms
    ft5206.o(.text) refers to printfa.o(i.__0printf) for __2printf
    ft5206.o(.text) refers to ft5206.o(.data) for t
    ft5206.o(.text) refers to touch.o(.data) for tp_dev
    ft5206.o(.text) refers to ft5206.o(.constdata) for FT5206_TPX_TBL
    gt9147.o(.text) refers to ctiic.o(.text) for CT_IIC_Start
    gt9147.o(.text) refers to stm32f1xx_hal_gpio.o(.text) for HAL_GPIO_Init
    gt9147.o(.text) refers to delay.o(.text) for delay_ms
    gt9147.o(.text) refers to printfa.o(i.__0printf) for __2printf
    gt9147.o(.text) refers to strcmp.o(.text) for strcmp
    gt9147.o(.text) refers to gt9147.o(.constdata) for GT9147_CFG_TBL
    gt9147.o(.text) refers to gt9147.o(.data) for t
    gt9147.o(.text) refers to touch.o(.data) for tp_dev
    gt9147.o(.text) refers to lcd.o(.bss) for lcddev
    lcd.o(.text) refers to public.o(.text) for delay_2us
    lcd.o(.text) refers to lcd.o(.bss) for lcddev
    lcd.o(.text) refers to dfltui.o(.text) for __aeabi_ui2d
    lcd.o(.text) refers to dmul.o(.text) for __aeabi_dmul
    lcd.o(.text) refers to dfixui.o(.text) for __aeabi_d2uiz
    lcd.o(.text) refers to lcd.o(.data) for POINT_COLOR
    lcd.o(.text) refers to stm32f1xx_hal_gpio.o(.text) for HAL_GPIO_Init
    lcd.o(.text) refers to stm32f1xx_hal_sram.o(.text) for HAL_SRAM_Init
    lcd.o(.text) refers to printfa.o(i.__0printf) for __2printf
    lcd.o(.text) refers to lcd.o(.constdata) for asc2_1206
    mailbox.o(.text) refers to bsp_key.o(.text) for Key_Scan
    mailbox.o(.text) refers to ipc.o(.text) for rt_mb_send
    mailbox.o(.text) refers to thread.o(.text) for rt_thread_mdelay
    mailbox.o(.text) refers to strcmp.o(.text) for strcmp
    mailbox.o(.text) refers to kservice.o(.text) for rt_kprintf
    mailbox.o(.text) refers to bsp_ds18b20.o(.text) for DS18B20_Get_Temp
    mailbox.o(.text) refers to f2d.o(.text) for __aeabi_f2d
    mailbox.o(.text) refers to printfa.o(i.__0printf) for __2printf
    mailbox.o(.text) refers to mailbox.o(.data) for key_up_press
    mailbox.o(.text) refers to mailbox.o(.bss) for thread1_stack
    main.o(.text) refers to 24l01.o(.text) for NRF24L01_TX_Mode
    main.o(.text) refers to ipc.o(.text) for rt_mb_recv
    main.o(.text) refers to scheduler.o(.text) for rt_enter_critical
    main.o(.text) refers to printfa.o(i.__0printf) for __2printf
    main.o(.text) refers to lcd.o(.text) for LCD_ShowString
    main.o(.text) refers to thread.o(.text) for rt_thread_mdelay
    main.o(.text) refers to bsp_gsm.o(.text) for GSM_SendSMS
    main.o(.text) refers to mem.o(.text) for rt_malloc
    main.o(.text) refers to kservice.o(.text) for rt_kprintf
    main.o(.text) refers to printfa.o(i.__0sprintf) for __2sprintf
    main.o(.text) refers to usart.o(.text) for usart2_senddata
    main.o(.text) refers to clock.o(.text) for rt_tick_get
    main.o(.text) refers to memseta.o(.text) for __aeabi_memclr
    main.o(.text) refers to main.o(.data) for val
    main.o(.text) refers to main.o(.bss) for IRDA_NRF2401_send
    main.o(.text) refers to lcd.o(.data) for POINT_COLOR
    main.o(.text) refers to usart.o(.bss) for USART_RX2_BUF
    main.o(.text) refers to usart.o(.data) for USART_RX2_STA
    main.o(.text) refers to remote.o(.text) for Remote_Scan
    main.o(.text) refers to bsp_led.o(.text) for Light_Control
    main.o(.text) refers to f2d.o(.text) for __aeabi_f2d
    main.o(.text) refers to cdcmple.o(.text) for __aeabi_cdcmple
    main.o(.text) refers to cdrcmple.o(.text) for __aeabi_cdrcmple
    main.o(.text) refers to cfcmple.o(.text) for __aeabi_cfcmpeq
    main.o(.text) refers to stm32f1xx_hal_cortex.o(.text) for HAL_NVIC_DisableIRQ
    main.o(.text) refers to rtc.o(.text) for Set_Time
    main.o(.text) refers to lcd.o(.bss) for lcddev
    main.o(.text) refers to touch.o(.data) for tp_dev
    main.o(.text) refers to bsp_adc.o(.text) for get_LS1_Status
    main.o(.text) refers to dht11.o(.text) for DHT11_Read_Data
    main.o(.text) refers to public.o(.text) for Get_decimal
    main.o(.text) refers to ffixui.o(.text) for __aeabi_f2uiz
    main.o(.text) refers to lwip_comm.o(.text) for lwip_comm_init
    main.o(.text) refers to httpd.o(.text) for httpd_init
    myiic.o(.text) refers to stm32f1xx_hal_gpio.o(.text) for HAL_GPIO_Init
    myiic.o(.text) refers to public.o(.text) for delay_2us
    ott2001a.o(.text) refers to ctiic.o(.text) for CT_IIC_Start
    ott2001a.o(.text) refers to stm32f1xx_hal_gpio.o(.text) for HAL_GPIO_Init
    ott2001a.o(.text) refers to delay.o(.text) for delay_ms
    ott2001a.o(.text) refers to printfa.o(i.__0printf) for __2printf
    ott2001a.o(.text) refers to dflti.o(.text) for __aeabi_i2d
    ott2001a.o(.text) refers to dmul.o(.text) for __aeabi_dmul
    ott2001a.o(.text) refers to dfixui.o(.text) for __aeabi_d2uiz
    ott2001a.o(.text) refers to dadd.o(.text) for __aeabi_drsub
    ott2001a.o(.text) refers to ott2001a.o(.data) for t
    ott2001a.o(.text) refers to touch.o(.data) for tp_dev
    ott2001a.o(.text) refers to ott2001a.o(.constdata) for OTT_TPX_TBL
    public.o(.text) refers to dfltui.o(.text) for __aeabi_ui2d
    public.o(.text) refers to dmul.o(.text) for __aeabi_dmul
    public.o(.text) refers to dfixi.o(.text) for __aeabi_d2iz
    remote.o(.text) refers to stm32f1xx_hal_tim.o(.text) for HAL_TIM_IC_Init
    remote.o(.text) refers to stm32f1xx_hal_gpio.o(.text) for HAL_GPIO_Init
    remote.o(.text) refers to stm32f1xx_hal_cortex.o(.text) for HAL_NVIC_SetPriority
    remote.o(.text) refers to remote.o(.bss) for TIM4_Handler
    remote.o(.text) refers to remote.o(.data) for RmtSta
    rtc.o(.text) refers to stm32f1xx_hal_rtc.o(.text) for HAL_RTC_Init
    rtc.o(.text) refers to stm32f1xx_hal_rtc_ex.o(.text) for HAL_RTCEx_BKUPRead
    rtc.o(.text) refers to printfa.o(i.__0printf) for __2printf
    rtc.o(.text) refers to stm32f1xx_hal_cortex.o(.text) for HAL_NVIC_SetPriority
    rtc.o(.text) refers to stm32f1xx_hal_pwr.o(.text) for HAL_PWR_EnableBkUpAccess
    rtc.o(.text) refers to stm32f1xx_hal_rcc.o(.text) for HAL_RCC_OscConfig
    rtc.o(.text) refers to stm32f1xx_hal_rcc_ex.o(.text) for HAL_RCCEx_PeriphCLKConfig
    rtc.o(.text) refers to printfa.o(i.__0sprintf) for __2sprintf
    rtc.o(.text) refers to lcd.o(.text) for LCD_ShowString
    rtc.o(.text) refers to rtc.o(.constdata) for table_week
    rtc.o(.text) refers to rtc.o(.data) for daycnt
    rtc.o(.text) refers to rtc.o(.bss) for calendar
    rtc.o(.text) refers to lcd.o(.data) for POINT_COLOR
    rtc.o(.text) refers to touch.o(.data) for tp_dev
    rtc.o(.text) refers to lcd.o(.bss) for lcddev
    rtc.o(.text) refers to public.o(.text) for Delay_ms
    spi.o(.text) refers to stm32f1xx_hal_spi.o(.text) for HAL_SPI_TransmitReceive
    spi.o(.text) refers to stm32f1xx_hal_spi_ex.o(.text) for HAL_SPI_Init
    spi.o(.text) refers to stm32f1xx_hal_gpio.o(.text) for HAL_GPIO_Init
    spi.o(.text) refers to spi.o(.bss) for SPI2_Handler
    touch.o(.text) refers to public.o(.text) for delay_2us
    touch.o(.text) refers to lcd.o(.text) for LCD_DrawLine
    touch.o(.text) refers to fflti.o(.text) for __aeabi_i2f
    touch.o(.text) refers to ffltui.o(.text) for __aeabi_ui2f
    touch.o(.text) refers to fmul.o(.text) for __aeabi_fmul
    touch.o(.text) refers to fadd.o(.text) for __aeabi_fadd
    touch.o(.text) refers to ffixui.o(.text) for __aeabi_f2uiz
    touch.o(.text) refers to 24cxx.o(.text) for AT24CXX_Write
    touch.o(.text) refers to touch.o(.data) for CMD_RDX
    touch.o(.text) refers to lcd.o(.data) for POINT_COLOR
    touch.o(.text) refers to dfltui.o(.text) for __aeabi_ui2d
    touch.o(.text) refers to sqrt.o(i.sqrt) for sqrt
    touch.o(.text) refers to dfixui.o(.text) for __aeabi_d2uiz
    touch.o(.text) refers to fdiv.o(.text) for __aeabi_fdiv
    touch.o(.text) refers to f2d.o(.text) for __aeabi_f2d
    touch.o(.text) refers to cdcmple.o(.text) for __aeabi_cdcmple
    touch.o(.text) refers to cdrcmple.o(.text) for __aeabi_cdrcmple
    touch.o(.text) refers to lcd.o(.bss) for lcddev
    touch.o(.text) refers to touch.o(.constdata) for TP_REMIND_MSG_TBL
    touch.o(.text) refers to dmul.o(.text) for __aeabi_dmul
    touch.o(.text) refers to ffixi.o(.text) for __aeabi_f2iz
    touch.o(.text) refers to gt9147.o(.text) for GT9147_Init
    touch.o(.text) refers to ott2001a.o(.text) for OTT2001A_Init
    touch.o(.text) refers to ft5206.o(.text) for FT5206_Init
    touch.o(.text) refers to stm32f1xx_hal_gpio.o(.text) for HAL_GPIO_Init
    touch.o(.constdata) refers to touch.o(.conststring) for .conststring
    touch.o(.data) refers to touch.o(.text) for TP_Init
    usart.o(.text) refers to stm32f1xx_hal_uart.o(.text) for HAL_UART_Init
    usart.o(.text) refers to printfa.o(i.__0printf) for __2printf
    usart.o(.text) refers to bsp_timer.o(.text) for TIM5_Init
    usart.o(.text) refers to stm32f1xx_hal_gpio.o(.text) for HAL_GPIO_Init
    usart.o(.text) refers to stm32f1xx_hal_cortex.o(.text) for HAL_NVIC_EnableIRQ
    usart.o(.text) refers to usart.o(.bss) for UART1_Handler
    usart.o(.text) refers to usart.o(.data) for aRxBuffer
    usart.o(.text) refers to bsp_timer.o(.bss) for TIM5_Handler
    sram.o(.text) refers to stm32f1xx_hal_gpio.o(.text) for HAL_GPIO_Init
    sram.o(.text) refers to stm32f1xx_hal_sram.o(.text) for HAL_SRAM_Init
    sram.o(.text) refers to sram.o(.bss) for SRAM_Handler
    board.o(.text) refers to stm32f1xx_hal_cortex.o(.text) for HAL_NVIC_SetPriorityGrouping
    board.o(.text) refers to stm32f1xx_hal_rcc.o(.text) for HAL_RCC_OscConfig
    board.o(.text) refers to kservice.o(.text) for rt_assert_handler
    board.o(.text) refers to irq.o(.text) for rt_interrupt_enter
    board.o(.text) refers to stm32f1xx_hal.o(.text) for HAL_IncTick
    board.o(.text) refers to clock.o(.text) for rt_tick_increase
    board.o(.text) refers to mem.o(.text) for rt_system_heap_init
    board.o(.text) refers to components.o(.text) for rt_components_board_init
    board.o(.text) refers to usart.o(.text) for uart2_init
    board.o(.text) refers to beep.o(.text) for BEEP_Init
    board.o(.text) refers to bsp_rsd.o(.text) for RSD_init
    board.o(.text) refers to bsp_wb.o(.text) for WB_init
    board.o(.text) refers to bsp_led.o(.text) for LED_Init
    board.o(.text) refers to remote.o(.text) for Remote_Init
    board.o(.text) refers to dht11.o(.text) for DHT11_Init
    board.o(.text) refers to printfa.o(i.__0printf) for __2printf
    board.o(.text) refers to bsp_adc.o(.text) for adc_Init
    board.o(.text) refers to lcd.o(.text) for LCD_Init
    board.o(.text) refers to 24l01.o(.text) for NRF24L01_Init
    board.o(.text) refers to rtc.o(.text) for RTC_Init
    board.o(.text) refers to board.o(.constdata) for __FUNCTION__
    board.o(.text) refers to board.o(.conststring) for .conststring
    board.o(.text) refers to touch.o(.data) for tp_dev
    drv_gpio.o(.text) refers to stm32f1xx_hal_gpio.o(.text) for HAL_GPIO_WritePin
    drv_gpio.o(.text) refers to context_rvds.o(.text) for rt_hw_interrupt_disable
    drv_gpio.o(.text) refers to drv_gpio.o(.constdata) for pins
    drv_gpio.o(.text) refers to drv_gpio.o(.data) for pin_irq_hdr_tab
    drv_gpio.o(.text) refers to stm32f1xx_hal_cortex.o(.text) for HAL_NVIC_SetPriority
    drv_gpio.o(.text) refers to pin.o(.text) for rt_device_pin_register
    drv_gpio.o(.text) refers to irq.o(.text) for rt_interrupt_enter
    drv_gpio.o(.constdata) refers to drv_gpio.o(.text) for stm32_pin_mode
    drv_gpio.o(.rti_fn.1) refers to drv_gpio.o(.text) for rt_hw_pin_init
    drv_usart.o(.text) refers to kservice.o(.text) for rt_assert_handler
    drv_usart.o(.text) refers to stm32f1xx_hal_uart.o(.text) for HAL_UART_Init
    drv_usart.o(.text) refers to serial.o(.text) for rt_hw_serial_isr
    drv_usart.o(.text) refers to irq.o(.text) for rt_interrupt_enter
    drv_usart.o(.text) refers to stm32f1xx_hal_gpio.o(.text) for HAL_GPIO_DeInit
    drv_usart.o(.text) refers to stm32f1xx_hal_cortex.o(.text) for HAL_NVIC_DisableIRQ
    drv_usart.o(.text) refers to drv_usart.o(.constdata) for __FUNCTION__
    drv_usart.o(.text) refers to drv_usart.o(.bss) for serial1
    drv_usart.o(.text) refers to drv_usart.o(.data) for uart1
    drv_usart.o(.constdata) refers to drv_usart.o(.text) for stm32_configure
    drv_usart.o(.rti_fn.1) refers to drv_usart.o(.text) for rt_hw_usart_init
    system_stm32f1xx.o(.text) refers to system_stm32f1xx.o(.data) for SystemCoreClock
    system_stm32f1xx.o(.text) refers to system_stm32f1xx.o(.constdata) for AHBPrescTable
    stm32f1xx_hal_adc.o(.text) refers to stm32f1xx_hal.o(.text) for HAL_GetTick
    stm32f1xx_hal_adc.o(.text) refers to bsp_adc.o(.text) for HAL_ADC_MspInit
    stm32f1xx_hal_adc.o(.text) refers to system_stm32f1xx.o(.data) for SystemCoreClock
    stm32f1xx_hal_adc.o(.text) refers to stm32f1xx_hal_rcc_ex.o(.text) for HAL_RCCEx_GetPeriphCLKFreq
    stm32f1xx_hal_adc.o(.text) refers to stm32f1xx_hal_dma.o(.text) for HAL_DMA_Start_IT
    stm32f1xx_hal_adc.o(.text) refers to stm32f1xx_hal_adc_ex.o(.text) for HAL_ADCEx_InjectedConvCpltCallback
    stm32f1xx_hal_adc_ex.o(.text) refers to stm32f1xx_hal_adc.o(.text) for ADC_ConversionStop_Disable
    stm32f1xx_hal_adc_ex.o(.text) refers to stm32f1xx_hal_rcc_ex.o(.text) for HAL_RCCEx_GetPeriphCLKFreq
    stm32f1xx_hal_adc_ex.o(.text) refers to stm32f1xx_hal.o(.text) for HAL_GetTick
    stm32f1xx_hal_adc_ex.o(.text) refers to system_stm32f1xx.o(.data) for SystemCoreClock
    stm32f1xx_hal_adc_ex.o(.text) refers to stm32f1xx_hal_dma.o(.text) for HAL_DMA_Start_IT
    stm32f1xx_hal_gpio.o(.text) refers to drv_gpio.o(.text) for HAL_GPIO_EXTI_Callback
    stm32f1xx_hal_flash.o(.text) refers to stm32f1xx_hal.o(.text) for HAL_GetTick
    stm32f1xx_hal_flash.o(.text) refers to llushr.o(.text) for __aeabi_llsr
    stm32f1xx_hal_flash.o(.text) refers to stm32f1xx_hal_flash_ex.o(.text) for FLASH_PageErase
    stm32f1xx_hal_flash.o(.text) refers to stm32f1xx_hal_flash.o(.bss) for pFlash
    stm32f1xx_hal_flash.o(.text) refers to stm32f1xx_hal_cortex.o(.text) for HAL_NVIC_SystemReset
    stm32f1xx_hal_flash_ex.o(.text) refers to stm32f1xx_hal_flash.o(.text) for FLASH_WaitForLastOperation
    stm32f1xx_hal_flash_ex.o(.text) refers to stm32f1xx_hal_flash.o(.bss) for pFlash
    stm32f1xx_hal_dma.o(.text) refers to stm32f1xx_hal.o(.text) for HAL_GetTick
    stm32f1xx_hal_iwdg.o(.text) refers to stm32f1xx_hal.o(.text) for HAL_GetTick
    stm32f1xx_hal_rcc.o(.text) refers to stm32f1xx_hal.o(.text) for HAL_GetTick
    stm32f1xx_hal_rcc.o(.text) refers to system_stm32f1xx.o(.data) for SystemCoreClock
    stm32f1xx_hal_rcc.o(.text) refers to stm32f1xx_hal_gpio.o(.text) for HAL_GPIO_Init
    stm32f1xx_hal_rcc.o(.text) refers to system_stm32f1xx.o(.constdata) for AHBPrescTable
    stm32f1xx_hal_rcc_ex.o(.text) refers to stm32f1xx_hal.o(.text) for HAL_GetTick
    stm32f1xx_hal_rcc_ex.o(.text) refers to stm32f1xx_hal_rcc.o(.text) for HAL_RCC_GetSysClockFreq
    stm32f1xx_hal_rtc.o(.text) refers to stm32f1xx_hal.o(.text) for HAL_GetTick
    stm32f1xx_hal_rtc.o(.text) refers to rtc.o(.text) for HAL_RTC_MspInit
    stm32f1xx_hal_rtc.o(.text) refers to stm32f1xx_hal_rcc_ex.o(.text) for HAL_RCCEx_GetPeriphCLKFreq
    stm32f1xx_hal_rtc_ex.o(.text) refers to stm32f1xx_hal.o(.text) for HAL_GetTick
    stm32f1xx_hal_spi.o(.text) refers to spi.o(.text) for HAL_SPI_MspInit
    stm32f1xx_hal_spi.o(.text) refers to stm32f1xx_hal.o(.text) for HAL_GetTick
    stm32f1xx_hal_spi.o(.text) refers to stm32f1xx_hal_spi_ex.o(.text) for SPI_ISCRCErrorValid
    stm32f1xx_hal_spi.o(.text) refers to system_stm32f1xx.o(.data) for SystemCoreClock
    stm32f1xx_hal_spi.o(.text) refers to stm32f1xx_hal_dma.o(.text) for HAL_DMA_Start_IT
    stm32f1xx_hal_spi_ex.o(.text) refers to spi.o(.text) for HAL_SPI_MspInit
    stm32f1xx_hal_spi_ex.o(.text) refers to stm32f1xx_hal_spi_ex.o(.data) for uCRCErrorWorkaroundCheck
    stm32f1xx_hal_tim.o(.text) refers to stm32f1xx_hal_cortex.o(.text) for HAL_NVIC_SetPriority
    stm32f1xx_hal_tim.o(.text) refers to remote.o(.text) for HAL_TIM_PeriodElapsedCallback
    stm32f1xx_hal_tim.o(.text) refers to stm32f1xx_hal_dma.o(.text) for HAL_DMA_Start_IT
    stm32f1xx_hal_tim.o(.text) refers to stm32f1xx_hal_tim_ex.o(.text) for HAL_TIMEx_BreakCallback
    stm32f1xx_hal_tim_ex.o(.text) refers to stm32f1xx_hal_tim.o(.text) for TIM_Base_SetConfig
    stm32f1xx_hal_tim_ex.o(.text) refers to stm32f1xx_hal_dma.o(.text) for HAL_DMA_Start_IT
    stm32f1xx_hal_uart.o(.text) refers to stm32f1xx_hal_rcc.o(.text) for HAL_RCC_GetPCLK2Freq
    stm32f1xx_hal_uart.o(.text) refers to usart.o(.text) for HAL_UART_MspInit
    stm32f1xx_hal_uart.o(.text) refers to drv_usart.o(.text) for HAL_UART_MspDeInit
    stm32f1xx_hal_uart.o(.text) refers to stm32f1xx_hal.o(.text) for HAL_GetTick
    stm32f1xx_hal_uart.o(.text) refers to stm32f1xx_hal_dma.o(.text) for HAL_DMA_Start_IT
    stm32f1xx_hal_usart.o(.text) refers to stm32f1xx_hal_rcc.o(.text) for HAL_RCC_GetPCLK2Freq
    stm32f1xx_hal_usart.o(.text) refers to stm32f1xx_hal.o(.text) for HAL_GetTick
    stm32f1xx_hal_usart.o(.text) refers to stm32f1xx_hal_dma.o(.text) for HAL_DMA_Start_IT
    stm32f1xx_hal.o(.text) refers to stm32f1xx_hal_cortex.o(.text) for HAL_SYSTICK_Config
    stm32f1xx_hal.o(.text) refers to board.o(.text) for HAL_MspInit
    stm32f1xx_hal.o(.text) refers to stm32f1xx_hal.o(.data) for uwTickFreq
    stm32f1xx_hal.o(.text) refers to system_stm32f1xx.o(.data) for SystemCoreClock
    stm32f1xx_ll_fsmc.o(.text) refers to stm32f1xx_hal.o(.text) for HAL_GetTick
    stm32f1xx_ll_utils.o(.text) refers to system_stm32f1xx.o(.data) for SystemCoreClock
    stm32f1xx_ll_utils.o(.text) refers to system_stm32f1xx.o(.constdata) for AHBPrescTable
    stm32f1xx_hal_sram.o(.text) refers to lcd.o(.text) for HAL_SRAM_MspInit
    stm32f1xx_hal_sram.o(.text) refers to stm32f1xx_ll_fsmc.o(.text) for FSMC_NORSRAM_Init
    stm32f1xx_hal_sram.o(.text) refers to stm32f1xx_hal_dma.o(.text) for HAL_DMA_Start_IT
    startup_stm32f103xe.o(RESET) refers to startup_stm32f103xe.o(STACK) for __initial_sp
    startup_stm32f103xe.o(RESET) refers to startup_stm32f103xe.o(.text) for Reset_Handler
    startup_stm32f103xe.o(RESET) refers to stm32f1xx_it.o(.text) for NMI_Handler
    startup_stm32f103xe.o(RESET) refers to context_rvds.o(.text) for HardFault_Handler
    startup_stm32f103xe.o(RESET) refers to board.o(.text) for SysTick_Handler
    startup_stm32f103xe.o(RESET) refers to rtc.o(.text) for RTC_IRQHandler
    startup_stm32f103xe.o(RESET) refers to drv_gpio.o(.text) for EXTI0_IRQHandler
    startup_stm32f103xe.o(RESET) refers to dm9000.o(.text) for EXTI9_5_IRQHandler
    startup_stm32f103xe.o(RESET) refers to remote.o(.text) for TIM4_IRQHandler
    startup_stm32f103xe.o(RESET) refers to drv_usart.o(.text) for USART1_IRQHandler
    startup_stm32f103xe.o(RESET) refers to usart.o(.text) for USART2_IRQHandler
    startup_stm32f103xe.o(RESET) refers to bsp_timer.o(.text) for TIM5_IRQHandler
    startup_stm32f103xe.o(.text) refers to system_stm32f1xx.o(.text) for SystemInit
    startup_stm32f103xe.o(.text) refers to entry.o(.ARM.Collect$$$$00000000) for __main
    pin.o(.text) refers to kservice.o(.text) for rt_assert_handler
    pin.o(.text) refers to device.o(.text) for rt_device_register
    pin.o(.text) refers to pin.o(.constdata) for __FUNCTION__
    pin.o(.text) refers to pin.o(.bss) for _hw_pin
    pin.o(FSymTab) refers to pin.o(.rodata.name) for __fsym_pinMode_name
    pin.o(FSymTab) refers to pin.o(.text) for rt_pin_mode
    serial.o(.text) refers to kservice.o(.text) for rt_assert_handler
    serial.o(.text) refers to context_rvds.o(.text) for rt_hw_interrupt_disable
    serial.o(.text) refers to mem.o(.text) for rt_malloc
    serial.o(.text) refers to completion.o(.text) for rt_completion_init
    serial.o(.text) refers to serial.o(.constdata) for __FUNCTION__
    serial.o(.text) refers to device.o(.text) for rt_device_register
    completion.o(.text) refers to kservice.o(.text) for rt_assert_handler
    completion.o(.text) refers to context_rvds.o(.text) for rt_hw_interrupt_disable
    completion.o(.text) refers to thread.o(.text) for rt_thread_self
    completion.o(.text) refers to irq.o(.text) for rt_interrupt_get_nest
    completion.o(.text) refers to timer.o(.text) for rt_timer_control
    completion.o(.text) refers to scheduler.o(.text) for rt_schedule
    completion.o(.text) refers to completion.o(.constdata) for __FUNCTION__
    dataqueue.o(.text) refers to kservice.o(.text) for rt_assert_handler
    dataqueue.o(.text) refers to mem.o(.text) for rt_malloc
    dataqueue.o(.text) refers to thread.o(.text) for rt_thread_self
    dataqueue.o(.text) refers to context_rvds.o(.text) for rt_hw_interrupt_disable
    dataqueue.o(.text) refers to irq.o(.text) for rt_interrupt_get_nest
    dataqueue.o(.text) refers to timer.o(.text) for rt_timer_control
    dataqueue.o(.text) refers to scheduler.o(.text) for rt_schedule
    dataqueue.o(.text) refers to dataqueue.o(.constdata) for __FUNCTION__
    pipe.o(.text) refers to kservice.o(.text) for rt_assert_handler
    pipe.o(.text) refers to ipc.o(.text) for rt_mutex_take
    pipe.o(.text) refers to ringbuffer.o(.text) for rt_ringbuffer_create
    pipe.o(.text) refers to mem.o(.text) for rt_malloc
    pipe.o(.text) refers to device.o(.text) for rt_device_register
    pipe.o(.text) refers to pipe.o(.constdata) for __FUNCTION__
    ringblk_buf.o(.text) refers to kservice.o(.text) for rt_assert_handler
    ringblk_buf.o(.text) refers to mem.o(.text) for rt_malloc
    ringblk_buf.o(.text) refers to context_rvds.o(.text) for rt_hw_interrupt_disable
    ringblk_buf.o(.text) refers to ringblk_buf.o(.constdata) for __FUNCTION__
    ringbuffer.o(.text) refers to kservice.o(.text) for rt_assert_handler
    ringbuffer.o(.text) refers to memcpya.o(.text) for __aeabi_memcpy
    ringbuffer.o(.text) refers to ringbuffer.o(.constdata) for __FUNCTION__
    ringbuffer.o(.text) refers to mem.o(.text) for rt_malloc
    waitqueue.o(.text) refers to context_rvds.o(.text) for rt_hw_interrupt_disable
    waitqueue.o(.text) refers to thread.o(.text) for rt_thread_resume
    waitqueue.o(.text) refers to scheduler.o(.text) for rt_schedule
    waitqueue.o(.text) refers to irq.o(.text) for rt_interrupt_get_nest
    waitqueue.o(.text) refers to kservice.o(.text) for rt_kprintf
    waitqueue.o(.text) refers to clock.o(.text) for rt_tick_from_millisecond
    waitqueue.o(.text) refers to timer.o(.text) for rt_timer_control
    waitqueue.o(.text) refers to waitqueue.o(.constdata) for __FUNCTION__
    workqueue.o(.text) refers to kservice.o(.text) for rt_assert_handler
    workqueue.o(.text) refers to thread.o(.text) for rt_thread_self
    workqueue.o(.text) refers to scheduler.o(.text) for rt_schedule
    workqueue.o(.text) refers to context_rvds.o(.text) for rt_hw_interrupt_disable
    workqueue.o(.text) refers to ipc.o(.text) for rt_sem_trytake
    workqueue.o(.text) refers to mem.o(.text) for rt_malloc
    workqueue.o(.text) refers to workqueue.o(.constdata) for __FUNCTION__
    shell.o(.text) refers to mem.o(.text) for rt_free
    shell.o(.text) refers to strlen.o(.text) for strlen
    shell.o(.text) refers to strcpy.o(.text) for strcpy
    shell.o(.text) refers to strncpy.o(.text) for strncpy
    shell.o(.text) refers to msh.o(.text) for msh_is_used
    shell.o(.text) refers to strcat.o(.text) for strcat
    shell.o(.text) refers to kservice.o(.text) for rt_assert_handler
    shell.o(.text) refers to ipc.o(.text) for rt_sem_take
    shell.o(.text) refers to device.o(.text) for rt_device_read
    shell.o(.text) refers to memseta.o(.text) for __aeabi_memclr4
    shell.o(.text) refers to cmd.o(.text) for list_prefix
    shell.o(.text) refers to finsh_parser.o(.text) for finsh_parser_run
    shell.o(.text) refers to finsh_error.o(.text) for finsh_errno
    shell.o(.text) refers to finsh_compiler.o(.text) for finsh_compiler_run
    shell.o(.text) refers to finsh_vm.o(.text) for finsh_vm_run
    shell.o(.text) refers to finsh_init.o(.text) for finsh_stack_bottom
    shell.o(.text) refers to memcmp.o(.text) for memcmp
    shell.o(.text) refers to memcpya.o(.text) for __aeabi_memcpy
    shell.o(.text) refers to shell.o(.data) for finsh_prompt_custom
    shell.o(.text) refers to shell.o(.bss) for finsh_prompt
    shell.o(.text) refers to shell.o(.constdata) for __FUNCTION__
    shell.o(.text) refers to thread.o(.text) for rt_thread_create
    shell.o(.text) refers to symbol.o(.data) for _syscall_table_begin
    shell.o(.rti_fn.6) refers to shell.o(.text) for finsh_system_init
    cmd.o(.text) refers to kservice.o(.text) for rt_kprintf
    cmd.o(.text) refers to scheduler.o(.text) for rt_enter_critical
    cmd.o(.text) refers to object.o(.text) for rt_object_get_information
    cmd.o(.text) refers to cmd.o(.conststring) for .conststring
    cmd.o(.text) refers to clock.o(.text) for rt_tick_get
    cmd.o(.text) refers to memcpya.o(.text) for __aeabi_memcpy4
    cmd.o(.text) refers to strncmp.o(.text) for strncmp
    cmd.o(.text) refers to strlen.o(.text) for strlen
    cmd.o(.text) refers to cmd.o(.constdata) for .constdata
    cmd.o(.text) refers to symbol.o(.data) for _syscall_table_begin
    cmd.o(.text) refers to finsh_vm.o(.data) for global_syscall_list
    cmd.o(.text) refers to finsh_var.o(.data) for global_sysvar_list
    cmd.o(.constdata) refers to cmd.o(.conststring) for .conststring
    cmd.o(FSymTab) refers to cmd.o(.rodata.name) for __fsym_hello_name
    cmd.o(FSymTab) refers to cmd.o(.text) for hello
    cmd.o(VSymTab) refers to cmd.o(.rodata.name) for __vsym_dummy_name
    cmd.o(VSymTab) refers to cmd.o(.data) for dummy
    msh.o(.text) refers to kservice.o(.text) for rt_kprintf
    msh.o(.text) refers to strncmp.o(.text) for strncmp
    msh.o(.text) refers to memseta.o(.text) for __aeabi_memclr4
    msh.o(.text) refers to strlen.o(.text) for strlen
    msh.o(.text) refers to msh.o(.data) for __msh_state
    msh.o(.text) refers to symbol.o(.data) for _syscall_table_begin
    msh.o(.text) refers to msh.o(.constdata) for __FUNCTION__
    msh.o(FSymTab) refers to msh.o(.rodata.name) for __fsym___cmd_exit_name
    msh.o(FSymTab) refers to msh.o(.text) for msh_exit
    msh_cmd.o(.text) refers to kservice.o(.text) for rt_kprintf
    msh_cmd.o(.text) refers to dns.o(.text) for dns_getserver
    msh_cmd.o(.text) refers to ip_addr.o(.text) for ipaddr_ntoa
    msh_cmd.o(.text) refers to cmd.o(.text) for list_thread
    msh_cmd.o(.text) refers to mem.o(.text) for list_mem
    msh_cmd.o(.text) refers to msh_cmd.o(.conststring) for .conststring
    msh_cmd.o(FSymTab) refers to msh_cmd.o(.rodata.name) for __fsym___cmd_ifconfig_name
    msh_cmd.o(FSymTab) refers to msh_cmd.o(.text) for cmd_ifconfig
    finsh_compiler.o(.text) refers to finsh_compiler.o(.data) for finsh_compile_pc
    finsh_compiler.o(.text) refers to finsh_error.o(.text) for finsh_error_set
    finsh_compiler.o(.text) refers to memseta.o(.text) for __aeabi_memclr
    finsh_compiler.o(.text) refers to finsh_vm.o(.bss) for text_segment
    finsh_error.o(.text) refers to finsh_error.o(.data) for global_errno
    finsh_error.o(.data) refers to finsh_error.o(.conststring) for .conststring
    finsh_heap.o(.text) refers to memseta.o(.text) for __aeabi_memclr4
    finsh_heap.o(.text) refers to finsh_heap.o(.bss) for finsh_heap
    finsh_heap.o(.text) refers to finsh_heap.o(.data) for free_list
    finsh_heap.o(.text) refers to finsh_var.o(.bss) for global_variable
    finsh_init.o(.text) refers to finsh_parser.o(.text) for finsh_parser_init
    finsh_init.o(.text) refers to finsh_node.o(.text) for finsh_node_init
    finsh_init.o(.text) refers to finsh_var.o(.text) for finsh_var_init
    finsh_init.o(.text) refers to finsh_error.o(.text) for finsh_error_init
    finsh_init.o(.text) refers to finsh_heap.o(.text) for finsh_heap_init
    finsh_init.o(.text) refers to finsh_vm.o(.bss) for finsh_vm_stack
    finsh_node.o(.text) refers to memseta.o(.text) for __aeabi_memclr4
    finsh_node.o(.text) refers to finsh_var.o(.text) for finsh_var_lookup
    finsh_node.o(.text) refers to finsh_vm.o(.text) for finsh_syscall_lookup
    finsh_node.o(.text) refers to finsh_error.o(.text) for finsh_error_set
    finsh_node.o(.text) refers to strlen.o(.text) for strlen
    finsh_node.o(.text) refers to finsh_heap.o(.text) for finsh_heap_allocate
    finsh_node.o(.text) refers to strncpy.o(.text) for strncpy
    finsh_node.o(.text) refers to finsh_node.o(.bss) for global_node_table
    finsh_ops.o(.text) refers to finsh_vm.o(.data) for finsh_sp
    finsh_ops.o(.constdata) refers to finsh_ops.o(.text) for OP_no_op
    finsh_parser.o(.text) refers to finsh_node.o(.text) for finsh_node_allocate
    finsh_parser.o(.text) refers to finsh_error.o(.text) for finsh_error_set
    finsh_parser.o(.text) refers to finsh_token.o(.text) for finsh_token_token
    finsh_parser.o(.text) refers to strncpy.o(.text) for strncpy
    finsh_parser.o(.text) refers to finsh_var.o(.text) for finsh_var_insert
    finsh_parser.o(.text) refers to memseta.o(.text) for __aeabi_memclr4
    finsh_var.o(.text) refers to memseta.o(.text) for __aeabi_memclr4
    finsh_var.o(.text) refers to strncmp.o(.text) for strncmp
    finsh_var.o(.text) refers to strncpy.o(.text) for strncpy
    finsh_var.o(.text) refers to mem.o(.text) for rt_malloc
    finsh_var.o(.text) refers to kservice.o(.text) for rt_strdup
    finsh_var.o(.text) refers to strcmp.o(.text) for strcmp
    finsh_var.o(.text) refers to strlen.o(.text) for strlen
    finsh_var.o(.text) refers to finsh_var.o(.bss) for global_variable
    finsh_var.o(.text) refers to finsh_var.o(.data) for global_sysvar_list
    finsh_var.o(.text) refers to symbol.o(.data) for _sysvar_table_begin
    finsh_vm.o(.text) refers to mem.o(.text) for rt_malloc
    finsh_vm.o(.text) refers to kservice.o(.text) for rt_strdup
    finsh_vm.o(.text) refers to strcmp.o(.text) for strcmp
    finsh_vm.o(.text) refers to strlen.o(.text) for strlen
    finsh_vm.o(.text) refers to strncmp.o(.text) for strncmp
    finsh_vm.o(.text) refers to finsh_vm.o(.bss) for finsh_vm_stack
    finsh_vm.o(.text) refers to finsh_vm.o(.data) for finsh_sp
    finsh_vm.o(.text) refers to finsh_ops.o(.constdata) for op_table
    finsh_vm.o(.text) refers to symbol.o(.data) for _syscall_table_begin
    finsh_token.o(.text) refers to memseta.o(.text) for __aeabi_memclr4
    finsh_token.o(.text) refers to strlen.o(.text) for strlen
    finsh_token.o(.text) refers to finsh_error.o(.text) for finsh_error_set
    finsh_token.o(.text) refers to atoi.o(.text) for atoi
    finsh_token.o(.text) refers to strcmp.o(.text) for strcmp
    finsh_token.o(.text) refers to strncpy.o(.text) for strncpy
    finsh_token.o(.text) refers to finsh_token.o(.constdata) for finsh_name_table
    finsh_token.o(.constdata) refers to finsh_token.o(.conststring) for .conststring
    libc.o(.rti_fn.4) refers to libc.o(.text) for libc_system_init
    mem_std.o(.text) refers to mem.o(.text) for rt_malloc
    stubs.o(.text) refers to strcmp.o(.text) for strcmp
    stubs.o(.text) refers to kservice.o(.text) for rt_console_get_device
    stubs.o(.text) refers to device.o(.text) for rt_device_write
    stubs.o(.text) refers to stubs.o(.constdata) for __stdin_name
    time.o(.text) refers to device.o(.text) for rt_device_find
    time.o(.text) refers to clock.o(.text) for rt_tick_get
    gmtime_r.o(.text) refers to gmtime_r.o(.constdata) for __spm
    api_lib.o(.text) refers to api_msg.o(.text) for netconn_alloc
    api_lib.o(.text) refers to tcpip.o(.text) for tcpip_apimsg
    api_lib.o(.text) refers to kservice.o(.text) for rt_kprintf
    api_lib.o(.text) refers to sys_arch.o(.text) for sys_arch_assert
    api_lib.o(.text) refers to memp.o(.text) for memp_free
    api_lib.o(.text) refers to scheduler.o(.text) for rt_enter_critical
    api_msg.o(.text) refers to sys_arch.o(.text) for sys_mbox_valid
    api_msg.o(.text) refers to scheduler.o(.text) for rt_enter_critical
    api_msg.o(.text) refers to pbuf.o(.text) for pbuf_alloc
    api_msg.o(.text) refers to memp.o(.text) for memp_malloc
    api_msg.o(.text) refers to netbuf.o(.text) for netbuf_delete
    api_msg.o(.text) refers to kservice.o(.text) for rt_kprintf
    api_msg.o(.text) refers to tcp.o(.text) for tcp_recved
    api_msg.o(.text) refers to ip.o(.data) for current_iphdr_src
    api_msg.o(.text) refers to tcp_out.o(.text) for tcp_write
    api_msg.o(.text) refers to raw.o(.text) for raw_new
    api_msg.o(.text) refers to udp.o(.text) for udp_new
    api_msg.o(.text) refers to igmp.o(.text) for igmp_joingroup
    api_msg.o(.text) refers to strcmp.o(.text) for strcmp
    api_msg.o(.text) refers to dns.o(.text) for dns_gethostbyname
    netbuf.o(.text) refers to memp.o(.text) for memp_malloc
    netbuf.o(.text) refers to pbuf.o(.text) for pbuf_free
    netbuf.o(.text) refers to kservice.o(.text) for rt_kprintf
    netbuf.o(.text) refers to sys_arch.o(.text) for sys_arch_assert
    netdb.o(.text) refers to api_lib.o(.text) for netconn_gethostbyname
    netdb.o(.text) refers to strlen.o(.text) for strlen
    netdb.o(.text) refers to memcpya.o(.text) for __aeabi_memcpy
    netdb.o(.text) refers to memp.o(.text) for memp_free
    netdb.o(.text) refers to atoi.o(.text) for atoi
    netdb.o(.text) refers to kservice.o(.text) for rt_kprintf
    netdb.o(.text) refers to sys_arch.o(.text) for sys_arch_assert
    netdb.o(.text) refers to memseta.o(.text) for __aeabi_memclr4
    netdb.o(.text) refers to def.o(.text) for lwip_htons
    netdb.o(.text) refers to netdb.o(.data) for h_errno
    netdb.o(.text) refers to netdb.o(.bss) for s_hostent
    netifapi.o(.text) refers to netif.o(.text) for netif_add
    netifapi.o(.text) refers to sys_arch.o(.text) for sys_sem_signal
    netifapi.o(.text) refers to tcpip.o(.text) for tcpip_netifapi
    sockets.o(.text) refers to errno.o(i.__aeabi_errno_addr) for __aeabi_errno_addr
    sockets.o(.text) refers to scheduler.o(.text) for rt_enter_critical
    sockets.o(.text) refers to pbuf.o(.text) for pbuf_free
    sockets.o(.text) refers to netbuf.o(.text) for netbuf_delete
    sockets.o(.text) refers to api_lib.o(.text) for netconn_accept
    sockets.o(.text) refers to kservice.o(.text) for rt_kprintf
    sockets.o(.text) refers to sys_arch.o(.text) for sys_arch_assert
    sockets.o(.text) refers to def.o(.text) for lwip_htons
    sockets.o(.text) refers to memcpya.o(.text) for __aeabi_memcpy
    sockets.o(.text) refers to sockets.o(.bss) for sockets
    sockets.o(.text) refers to sockets.o(.constdata) for err_to_errno_table
    sockets.o(.text) refers to sockets.o(.data) for select_cb_list
    sockets.o(.text) refers to tcpip.o(.text) for tcpip_callback_with_block
    sockets.o(.text) refers to igmp.o(.text) for igmp_joingroup
    tcpip.o(.text) refers to timers.o(.text) for sys_timeouts_mbox_fetch
    tcpip.o(.text) refers to etharp.o(.text) for ethernet_input
    tcpip.o(.text) refers to ip.o(.text) for ip_input
    tcpip.o(.text) refers to memp.o(.text) for memp_free
    tcpip.o(.text) refers to kservice.o(.text) for rt_kprintf
    tcpip.o(.text) refers to sys_arch.o(.text) for sys_arch_assert
    tcpip.o(.text) refers to init.o(.text) for lwip_init
    tcpip.o(.text) refers to pbuf.o(.text) for pbuf_free
    tcpip.o(.text) refers to tcpip.o(.data) for tcpip_init_done
    tcpip.o(.text) refers to mem.o(.text) for rt_free
    sys_arch.o(.text) refers to context_rvds.o(.text) for rt_hw_interrupt_disable
    sys_arch.o(.text) refers to irq.o(.text) for rt_interrupt_get_nest
    sys_arch.o(.text) refers to kservice.o(.text) for rt_kprintf
    sys_arch.o(.text) refers to ipc.o(.text) for rt_sem_create
    sys_arch.o(.text) refers to clock.o(.text) for rt_tick_get
    sys_arch.o(.text) refers to thread.o(.text) for rt_thread_self
    sys_arch.o(.text) refers to sys_arch.o(.constdata) for __FUNCTION__
    sys_arch.o(.text) refers to sys_arch.o(.data) for counter
    dhcp.o(.text) refers to kservice.o(.text) for rt_kprintf
    dhcp.o(.text) refers to sys_arch.o(.text) for sys_arch_assert
    dhcp.o(.text) refers to pbuf.o(.text) for pbuf_free
    dhcp.o(.text) refers to rand.o(.text) for rand
    dhcp.o(.text) refers to def.o(.text) for lwip_htonl
    dhcp.o(.text) refers to dhcp.o(.conststring) for .conststring
    dhcp.o(.text) refers to dhcp.o(.data) for xid
    dhcp.o(.text) refers to udp.o(.text) for udp_sendto_if
    dhcp.o(.text) refers to netif.o(.text) for netif_set_down
    dhcp.o(.text) refers to etharp.o(.text) for etharp_query
    dhcp.o(.text) refers to ip_addr.o(.constdata) for ip_addr_broadcast
    dhcp.o(.text) refers to dhcp.o(.bss) for dhcp_rx_options_given
    dhcp.o(.text) refers to netif.o(.data) for netif_list
    dhcp.o(.text) refers to dns.o(.text) for dns_setserver
    dhcp.o(.text) refers to memseta.o(.text) for __aeabi_memclr4
    dhcp.o(.text) refers to mem.o(.text) for rt_free
    dns.o(.text) refers to pbuf.o(.text) for pbuf_copy_partial
    dns.o(.text) refers to def.o(.text) for lwip_htons
    dns.o(.text) refers to ip_addr.o(.text) for ipaddr_addr
    dns.o(.text) refers to udp.o(.text) for udp_new
    dns.o(.text) refers to kservice.o(.text) for rt_kprintf
    dns.o(.text) refers to sys_arch.o(.text) for sys_arch_assert
    dns.o(.text) refers to dns.o(.data) for dns_pcb
    dns.o(.text) refers to dns.o(.bss) for dns_table
    dns.o(.text) refers to ip_addr.o(.constdata) for ip_addr_any
    dns.o(.text) refers to strcmp.o(.text) for strcmp
    dns.o(.text) refers to strlen.o(.text) for strlen
    dns.o(.text) refers to memcpya.o(.text) for __aeabi_memcpy
    init.o(.text) refers to sys_arch.o(.text) for sys_init
    init.o(.text) refers to memp.o(.text) for memp_init
    init.o(.text) refers to netif.o(.text) for netif_init
    init.o(.text) refers to sockets.o(.text) for lwip_socket_init
    init.o(.text) refers to udp.o(.text) for udp_init
    init.o(.text) refers to tcp.o(.text) for tcp_init
    init.o(.text) refers to igmp.o(.text) for igmp_init
    init.o(.text) refers to dns.o(.text) for dns_init
    init.o(.text) refers to timers.o(.text) for sys_timeouts_init
    memp.o(.text) refers to kservice.o(.text) for rt_kprintf
    memp.o(.text) refers to sys_arch.o(.text) for sys_arch_assert
    memp.o(.text) refers to scheduler.o(.text) for rt_enter_critical
    memp.o(.text) refers to memp.o(.bss) for memp_memory
    memp.o(.text) refers to memp.o(.constdata) for memp_sizes
    netif.o(.text) refers to tcp.o(.text) for tcp_abort
    netif.o(.text) refers to kservice.o(.text) for rt_kprintf
    netif.o(.text) refers to sys_arch.o(.text) for sys_arch_assert
    netif.o(.text) refers to igmp.o(.text) for igmp_start
    netif.o(.text) refers to etharp.o(.text) for etharp_cleanup_netif
    netif.o(.text) refers to dhcp.o(.text) for dhcp_network_changed
    netif.o(.text) refers to tcp.o(.data) for tcp_active_pcbs
    netif.o(.text) refers to netif.o(.data) for netif_num
    pbuf.o(.text) refers to scheduler.o(.text) for rt_enter_critical
    pbuf.o(.text) refers to tcp.o(.text) for tcp_segs_free
    pbuf.o(.text) refers to tcpip.o(.text) for tcpip_callback_with_block
    pbuf.o(.text) refers to kservice.o(.text) for rt_kprintf
    pbuf.o(.text) refers to sys_arch.o(.text) for sys_arch_assert
    pbuf.o(.text) refers to memp.o(.text) for memp_free
    pbuf.o(.text) refers to mem.o(.text) for rt_free
    pbuf.o(.text) refers to pbuf.o(.data) for pbuf_free_ooseq_pending
    pbuf.o(.text) refers to tcp.o(.data) for tcp_active_pcbs
    pbuf.o(.text) refers to memcpya.o(.text) for __aeabi_memcpy
    pbuf.o(.text) refers to strlen.o(.text) for strlen
    raw.o(.text) refers to ip_addr.o(.text) for ip4_addr_isbroadcast
    raw.o(.text) refers to pbuf.o(.text) for pbuf_header
    raw.o(.text) refers to kservice.o(.text) for rt_kprintf
    raw.o(.text) refers to sys_arch.o(.text) for sys_arch_assert
    raw.o(.text) refers to ip.o(.text) for ip_route
    raw.o(.text) refers to memp.o(.text) for memp_free
    raw.o(.text) refers to memseta.o(.text) for __aeabi_memclr4
    raw.o(.text) refers to raw.o(.data) for raw_pcbs
    raw.o(.text) refers to ip.o(.data) for current_iphdr_dest
    core_sys.o(.text) refers to sys_arch.o(.text) for sys_sem_new
    tcp.o(.text) refers to pbuf.o(.text) for pbuf_free
    tcp.o(.text) refers to memp.o(.text) for memp_free
    tcp.o(.text) refers to kservice.o(.text) for rt_kprintf
    tcp.o(.text) refers to sys_arch.o(.text) for sys_arch_assert
    tcp.o(.text) refers to tcp_out.o(.text) for tcp_zero_window_probe
    tcp.o(.text) refers to tcp.o(.data) for tcp_ticks
    tcp.o(.text) refers to tcp.o(.constdata) for tcp_persist_backoff
    tcp.o(.text) refers to timers.o(.text) for tcp_timer_needed
    tcp.o(.text) refers to ip.o(.text) for ip_route
    tcp.o(.text) refers to memseta.o(.text) for __aeabi_memclr4
    tcp.o(.constdata) refers to tcp.o(.conststring) for .conststring
    tcp.o(.constdata) refers to tcp.o(.data) for tcp_listen_pcbs
    tcp_in.o(.text) refers to def.o(.text) for lwip_ntohs
    tcp_in.o(.text) refers to tcp.o(.text) for tcp_segs_free
    tcp_in.o(.text) refers to pbuf.o(.text) for pbuf_realloc
    tcp_in.o(.text) refers to kservice.o(.text) for rt_kprintf
    tcp_in.o(.text) refers to sys_arch.o(.text) for sys_arch_assert
    tcp_in.o(.text) refers to tcp_out.o(.text) for tcp_rexmit_fast
    tcp_in.o(.text) refers to tcp_in.o(.data) for seqno
    tcp_in.o(.text) refers to tcp.o(.data) for tcp_ticks
    tcp_in.o(.text) refers to tcp_in.o(.bss) for inseg
    tcp_in.o(.text) refers to ip.o(.data) for current_iphdr_src
    tcp_in.o(.text) refers to timers.o(.text) for tcp_timer_needed
    tcp_in.o(.text) refers to ip_addr.o(.text) for ip4_addr_isbroadcast
    tcp_in.o(.text) refers to inet_chksum.o(.text) for inet_chksum_pseudo
    tcp_in.o(.text) refers to memp.o(.text) for memp_free
    tcp_out.o(.text) refers to pbuf.o(.text) for pbuf_alloc
    tcp_out.o(.text) refers to kservice.o(.text) for rt_kprintf
    tcp_out.o(.text) refers to sys_arch.o(.text) for sys_arch_assert
    tcp_out.o(.text) refers to def.o(.text) for lwip_htons
    tcp_out.o(.text) refers to memp.o(.text) for memp_malloc
    tcp_out.o(.text) refers to tcp.o(.text) for tcp_seg_free
    tcp_out.o(.text) refers to tcp_out.o(.conststring) for .conststring
    tcp_out.o(.text) refers to memcpya.o(.text) for __aeabi_memcpy
    tcp_out.o(.text) refers to inet_chksum.o(.text) for inet_chksum_pseudo
    tcp_out.o(.text) refers to ip.o(.text) for ip_output
    tcp_out.o(.text) refers to tcp.o(.data) for tcp_ticks
    tcp_out.o(.text) refers to tcp_in.o(.data) for tcp_input_pcb
    timers.o(.text) refers to memp.o(.text) for memp_malloc
    timers.o(.text) refers to kservice.o(.text) for rt_kprintf
    timers.o(.text) refers to sys_arch.o(.text) for sys_arch_assert
    timers.o(.text) refers to tcp.o(.text) for tcp_tmr
    timers.o(.text) refers to etharp.o(.text) for etharp_tmr
    timers.o(.text) refers to dhcp.o(.text) for dhcp_coarse_tmr
    timers.o(.text) refers to igmp.o(.text) for igmp_tmr
    timers.o(.text) refers to dns.o(.text) for dns_tmr
    timers.o(.text) refers to timers.o(.data) for next_timeout
    timers.o(.text) refers to tcp.o(.data) for tcp_active_pcbs
    udp.o(.text) refers to pbuf.o(.text) for pbuf_header
    udp.o(.text) refers to ip_addr.o(.text) for ip4_addr_isbroadcast
    udp.o(.text) refers to def.o(.text) for lwip_ntohs
    udp.o(.text) refers to inet_chksum.o(.text) for inet_chksum_pseudo
    udp.o(.text) refers to kservice.o(.text) for rt_kprintf
    udp.o(.text) refers to sys_arch.o(.text) for sys_arch_assert
    udp.o(.text) refers to icmp.o(.text) for icmp_dest_unreach
    udp.o(.text) refers to udp.o(.data) for udp_port
    udp.o(.text) refers to ip.o(.data) for current_iphdr_dest
    udp.o(.text) refers to ip.o(.text) for ip_output_if
    udp.o(.text) refers to memp.o(.text) for memp_free
    udp.o(.text) refers to memseta.o(.text) for __aeabi_memclr4
    icmp.o(.text) refers to pbuf.o(.text) for pbuf_header
    icmp.o(.text) refers to ip_addr.o(.text) for ip4_addr_isbroadcast
    icmp.o(.text) refers to inet_chksum.o(.text) for inet_chksum_pbuf
    icmp.o(.text) refers to kservice.o(.text) for rt_kprintf
    icmp.o(.text) refers to sys_arch.o(.text) for sys_arch_assert
    icmp.o(.text) refers to ip.o(.text) for ip_output_if
    icmp.o(.text) refers to memcpya.o(.text) for __aeabi_memcpy
    icmp.o(.text) refers to ip.o(.data) for current_iphdr_dest
    igmp.o(.text) refers to memp.o(.text) for memp_malloc
    igmp.o(.text) refers to rand.o(.text) for rand
    igmp.o(.text) refers to pbuf.o(.text) for pbuf_header
    igmp.o(.text) refers to inet_chksum.o(.text) for inet_chksum
    igmp.o(.text) refers to ip.o(.text) for ip_output_if_opt
    igmp.o(.text) refers to kservice.o(.text) for rt_kprintf
    igmp.o(.text) refers to sys_arch.o(.text) for sys_arch_assert
    igmp.o(.text) refers to igmp.o(.data) for allsystems
    igmp.o(.text) refers to ip_addr.o(.constdata) for ip_addr_any
    igmp.o(.text) refers to netif.o(.data) for netif_list
    inet_chksum.o(.text) refers to def.o(.text) for lwip_htons
    inet_chksum.o(.text) refers to kservice.o(.text) for rt_kprintf
    inet_chksum.o(.text) refers to sys_arch.o(.text) for sys_arch_assert
    ip.o(.text) refers to pbuf.o(.text) for pbuf_free
    ip.o(.text) refers to def.o(.text) for lwip_ntohs
    ip.o(.text) refers to inet_chksum.o(.text) for inet_chksum
    ip.o(.text) refers to igmp.o(.text) for igmp_lookfor_group
    ip.o(.text) refers to ip_addr.o(.text) for ip4_addr_isbroadcast
    ip.o(.text) refers to raw.o(.text) for raw_input
    ip.o(.text) refers to udp.o(.text) for udp_input
    ip.o(.text) refers to tcp_in.o(.text) for tcp_input
    ip.o(.text) refers to icmp.o(.text) for icmp_input
    ip.o(.text) refers to kservice.o(.text) for rt_kprintf
    ip.o(.text) refers to sys_arch.o(.text) for sys_arch_assert
    ip.o(.text) refers to memcpya.o(.text) for __aeabi_memcpy
    ip.o(.text) refers to memseta.o(.text) for __aeabi_memclr
    ip.o(.text) refers to netif.o(.data) for netif_list
    ip.o(.text) refers to ip.o(.data) for current_iphdr_dest
    ip_addr.o(.text) refers to def.o(.text) for lwip_htonl
    ip_addr.o(.text) refers to kservice.o(.text) for rt_kprintf
    ip_addr.o(.text) refers to sys_arch.o(.text) for sys_arch_assert
    ip_addr.o(.text) refers to ip_addr.o(.bss) for str
    etharp.o(.text) refers to kservice.o(.text) for rt_kprintf
    etharp.o(.text) refers to sys_arch.o(.text) for sys_arch_assert
    etharp.o(.text) refers to pbuf.o(.text) for pbuf_free
    etharp.o(.text) refers to memp.o(.text) for memp_free
    etharp.o(.text) refers to ip_addr.o(.text) for ip4_addr_isbroadcast
    etharp.o(.text) refers to etharp.o(.bss) for arp_table
    etharp.o(.text) refers to etharp.o(.conststring) for .conststring
    etharp.o(.text) refers to def.o(.text) for lwip_htons
    etharp.o(.text) refers to dhcp.o(.text) for dhcp_arp_reply
    etharp.o(.text) refers to etharp.o(.constdata) for ethzero
    etharp.o(.text) refers to memcmp.o(.text) for memcmp
    etharp.o(.text) refers to etharp.o(.data) for etharp_cached_entry
    etharp.o(.text) refers to ip.o(.text) for ip_input
    ethernetif.o(.text) refers to dm9000.o(.text) for DM9000_SendPacket
    ethernetif.o(.text) refers to pbuf.o(.text) for pbuf_free
    ethernetif.o(.text) refers to thread.o(.text) for rt_thread_mdelay
    ethernetif.o(.text) refers to kservice.o(.text) for rt_kprintf
    ethernetif.o(.text) refers to sys_arch.o(.text) for sys_arch_assert
    ethernetif.o(.text) refers to lwip_comm.o(.bss) for lwipdev
    ethernetif.o(.text) refers to etharp.o(.text) for etharp_output
    lwip_comm.o(.text) refers to ethernetif.o(.text) for ethernetif_input
    lwip_comm.o(.text) refers to dhcp.o(.text) for dhcp_start
    lwip_comm.o(.text) refers to printfa.o(i.__0printf) for __2printf
    lwip_comm.o(.text) refers to public.o(.text) for Delay_ms
    lwip_comm.o(.text) refers to thread.o(.text) for rt_thread_mdelay
    lwip_comm.o(.text) refers to scheduler.o(.text) for rt_enter_critical
    lwip_comm.o(.text) refers to kservice.o(.text) for rt_kprintf
    lwip_comm.o(.text) refers to ipc.o(.text) for rt_sem_create
    lwip_comm.o(.text) refers to dm9000.o(.text) for DM9000_Init
    lwip_comm.o(.text) refers to tcpip.o(.text) for tcpip_init
    lwip_comm.o(.text) refers to netif.o(.text) for netif_add
    lwip_comm.o(.text) refers to lwip_comm.o(.bss) for lwip_netif
    lwip_comm.o(.text) refers to dm9000.o(.bss) for dm9000cfg
    lwip_comm.o(.text) refers to lwip_comm.o(.data) for dm9000input
    fs.o(.text) refers to strcmp.o(.text) for strcmp
    fs.o(.text) refers to memcpya.o(.text) for __aeabi_memcpy
    fs.o(.text) refers to fs.o(.bss) for fs_memory
    fs.o(.text) refers to fs.o(.constdata) for file__STM32F103_RTC_shtml
    httpd.o(.text) refers to strlen.o(.text) for strlen
    httpd.o(.text) refers to strncmp.o(.text) for strncmp
    httpd.o(.text) refers to mem.o(.text) for rt_malloc
    httpd.o(.text) refers to memseta.o(.text) for __aeabi_memclr4
    httpd.o(.text) refers to fs.o(.text) for fs_close
    httpd.o(.text) refers to kservice.o(.text) for rt_kprintf
    httpd.o(.text) refers to sys_arch.o(.text) for sys_arch_assert
    httpd.o(.text) refers to tcp_out.o(.text) for tcp_write
    httpd.o(.text) refers to strcmp.o(.text) for strcmp
    httpd.o(.text) refers to memcpya.o(.text) for __aeabi_memcpy4
    httpd.o(.text) refers to httpd.o(.conststring) for .conststring
    httpd.o(.text) refers to httpd.o(.data) for g_pfnSSIHandler
    httpd.o(.text) refers to httpd.o(.constdata) for g_pcTagLeadIn
    httpd.o(.text) refers to tcp.o(.text) for tcp_arg
    httpd.o(.text) refers to strchr.o(.text) for strchr
    httpd.o(.text) refers to strstr.o(.text) for strstr
    httpd.o(.text) refers to pbuf.o(.text) for pbuf_cat
    httpd.o(.text) refers to httpd.o(.bss) for httpd_req_buf
    httpd.o(.text) refers to httpd_cgi_ssi.o(.text) for httpd_ssi_init
    httpd.o(.text) refers to ip_addr.o(.constdata) for ip_addr_any
    httpd.o(.constdata) refers to httpd.o(.conststring) for .conststring
    httpd.o(.data) refers to httpd.o(.conststring) for .conststring
    httpd_cgi_ssi.o(.text) refers to strcmp.o(.text) for strcmp
    httpd_cgi_ssi.o(.text) refers to bsp_adc.o(.text) for get_aver_val
    httpd_cgi_ssi.o(.text) refers to fmul.o(.text) for __aeabi_fmul
    httpd_cgi_ssi.o(.text) refers to ffixui.o(.text) for __aeabi_f2uiz
    httpd_cgi_ssi.o(.text) refers to strlen.o(.text) for strlen
    httpd_cgi_ssi.o(.text) refers to lcd.o(.text) for LCD_ShowString
    httpd_cgi_ssi.o(.text) refers to main.o(.data) for temp
    httpd_cgi_ssi.o(.text) refers to rtc.o(.bss) for calendar
    httpd_cgi_ssi.o(.text) refers to lcd.o(.data) for POINT_COLOR
    httpd_cgi_ssi.o(.text) refers to beep.o(.text) for beep_warning
    httpd_cgi_ssi.o(.text) refers to lcd.o(.bss) for lcddev
    httpd_cgi_ssi.o(.text) refers to httpd.o(.text) for http_set_ssi_handler
    httpd_cgi_ssi.o(.text) refers to httpd_cgi_ssi.o(.data) for ppcTAGs
    httpd_cgi_ssi.o(.text) refers to httpd_cgi_ssi.o(.constdata) for ppcURLs
    httpd_cgi_ssi.o(.constdata) refers to httpd_cgi_ssi.o(.conststring) for .conststring
    httpd_cgi_ssi.o(.constdata) refers to httpd_cgi_ssi.o(.text) for LEDS_CGI_Handler
    httpd_cgi_ssi.o(.data) refers to httpd_cgi_ssi.o(.conststring) for .conststring
    sqrt.o(i.__softfp_sqrt) refers (Special) to iusefp.o(.text) for __I$use$fp
    sqrt.o(i.__softfp_sqrt) refers to dsqrt.o(.text) for _dsqrt
    sqrt.o(i.__softfp_sqrt) refers to errno.o(i.__set_errno) for __set_errno
    sqrt.o(i.sqrt) refers (Special) to iusefp.o(.text) for __I$use$fp
    sqrt.o(i.sqrt) refers to dsqrt.o(.text) for _dsqrt
    sqrt.o(i.sqrt) refers to errno.o(i.__set_errno) for __set_errno
    sqrt_x.o(i.____softfp_sqrt$lsc) refers (Special) to iusefp.o(.text) for __I$use$fp
    sqrt_x.o(i.____softfp_sqrt$lsc) refers to cdcmple.o(.text) for __aeabi_cdcmple
    sqrt_x.o(i.____softfp_sqrt$lsc) refers to errno.o(i.__set_errno) for __set_errno
    sqrt_x.o(i.____softfp_sqrt$lsc) refers to dsqrt.o(.text) for _dsqrt
    sqrt_x.o(i.__sqrt$lsc) refers (Special) to iusefp.o(.text) for __I$use$fp
    sqrt_x.o(i.__sqrt$lsc) refers to cdcmple.o(.text) for __aeabi_cdcmple
    sqrt_x.o(i.__sqrt$lsc) refers to errno.o(i.__set_errno) for __set_errno
    sqrt_x.o(i.__sqrt$lsc) refers to dsqrt.o(.text) for _dsqrt
    entry.o(.ARM.Collect$$$$00000000) refers (Special) to entry10a.o(.ARM.Collect$$$$0000000D) for __rt_final_cpp
    entry.o(.ARM.Collect$$$$00000000) refers (Special) to entry11a.o(.ARM.Collect$$$$0000000F) for __rt_final_exit
    entry.o(.ARM.Collect$$$$00000000) refers (Special) to entry7b.o(.ARM.Collect$$$$00000008) for _main_clock
    entry.o(.ARM.Collect$$$$00000000) refers (Special) to entry8b.o(.ARM.Collect$$$$0000000A) for _main_cpp_init
    entry.o(.ARM.Collect$$$$00000000) refers (Special) to entry9a.o(.ARM.Collect$$$$0000000B) for _main_init
    entry.o(.ARM.Collect$$$$00000000) refers (Special) to entry5.o(.ARM.Collect$$$$00000004) for _main_scatterload
    entry.o(.ARM.Collect$$$$00000000) refers (Special) to entry2.o(.ARM.Collect$$$$00000001) for _main_stk
    rand.o(.text) refers to rand.o(.data) for .data
    printfb.o(i.__0fprintf$bare) refers to printfb.o(i._printf_core) for _printf_core
    printfb.o(i.__0fprintf$bare) refers to stubs.o(.text) for fputc
    printfb.o(i.__0printf$bare) refers to printfb.o(i._printf_core) for _printf_core
    printfb.o(i.__0printf$bare) refers to stubs.o(.text) for fputc
    printfb.o(i.__0printf$bare) refers to stdout.o(.data) for __stdout
    printfb.o(i.__0snprintf$bare) refers to printfb.o(i._printf_core) for _printf_core
    printfb.o(i.__0snprintf$bare) refers to printfb.o(i._snputc) for _snputc
    printfb.o(i.__0sprintf$bare) refers to printfb.o(i._printf_core) for _printf_core
    printfb.o(i.__0sprintf$bare) refers to printfb.o(i._sputc) for _sputc
    printfb.o(i.__0vfprintf$bare) refers to printfb.o(i._printf_core) for _printf_core
    printfb.o(i.__0vfprintf$bare) refers to stubs.o(.text) for fputc
    printfb.o(i.__0vprintf$bare) refers to printfb.o(i._printf_core) for _printf_core
    printfb.o(i.__0vprintf$bare) refers to stubs.o(.text) for fputc
    printfb.o(i.__0vprintf$bare) refers to stdout.o(.data) for __stdout
    printfb.o(i.__0vsnprintf$bare) refers to printfb.o(i._printf_core) for _printf_core
    printfb.o(i.__0vsnprintf$bare) refers to printfb.o(i._snputc) for _snputc
    printfb.o(i.__0vsprintf$bare) refers to printfb.o(i._printf_core) for _printf_core
    printfb.o(i.__0vsprintf$bare) refers to printfb.o(i._sputc) for _sputc
    printf0.o(i.__0fprintf$0) refers to printf0.o(i._printf_core) for _printf_core
    printf0.o(i.__0fprintf$0) refers to stubs.o(.text) for fputc
    printf0.o(i.__0printf$0) refers to printf0.o(i._printf_core) for _printf_core
    printf0.o(i.__0printf$0) refers to stubs.o(.text) for fputc
    printf0.o(i.__0printf$0) refers to stdout.o(.data) for __stdout
    printf0.o(i.__0snprintf$0) refers to printf0.o(i._printf_core) for _printf_core
    printf0.o(i.__0snprintf$0) refers to printf0.o(i._snputc) for _snputc
    printf0.o(i.__0sprintf$0) refers to printf0.o(i._printf_core) for _printf_core
    printf0.o(i.__0sprintf$0) refers to printf0.o(i._sputc) for _sputc
    printf0.o(i.__0vfprintf$0) refers to printf0.o(i._printf_core) for _printf_core
    printf0.o(i.__0vfprintf$0) refers to stubs.o(.text) for fputc
    printf0.o(i.__0vprintf$0) refers to printf0.o(i._printf_core) for _printf_core
    printf0.o(i.__0vprintf$0) refers to stubs.o(.text) for fputc
    printf0.o(i.__0vprintf$0) refers to stdout.o(.data) for __stdout
    printf0.o(i.__0vsnprintf$0) refers to printf0.o(i._printf_core) for _printf_core
    printf0.o(i.__0vsnprintf$0) refers to printf0.o(i._snputc) for _snputc
    printf0.o(i.__0vsprintf$0) refers to printf0.o(i._printf_core) for _printf_core
    printf0.o(i.__0vsprintf$0) refers to printf0.o(i._sputc) for _sputc
    printf1.o(i.__0fprintf$1) refers to printf1.o(i._printf_core) for _printf_core
    printf1.o(i.__0fprintf$1) refers to stubs.o(.text) for fputc
    printf1.o(i.__0printf$1) refers to printf1.o(i._printf_core) for _printf_core
    printf1.o(i.__0printf$1) refers to stubs.o(.text) for fputc
    printf1.o(i.__0printf$1) refers to stdout.o(.data) for __stdout
    printf1.o(i.__0snprintf$1) refers to printf1.o(i._printf_core) for _printf_core
    printf1.o(i.__0snprintf$1) refers to printf1.o(i._snputc) for _snputc
    printf1.o(i.__0sprintf$1) refers to printf1.o(i._printf_core) for _printf_core
    printf1.o(i.__0sprintf$1) refers to printf1.o(i._sputc) for _sputc
    printf1.o(i.__0vfprintf$1) refers to printf1.o(i._printf_core) for _printf_core
    printf1.o(i.__0vfprintf$1) refers to stubs.o(.text) for fputc
    printf1.o(i.__0vprintf$1) refers to printf1.o(i._printf_core) for _printf_core
    printf1.o(i.__0vprintf$1) refers to stubs.o(.text) for fputc
    printf1.o(i.__0vprintf$1) refers to stdout.o(.data) for __stdout
    printf1.o(i.__0vsnprintf$1) refers to printf1.o(i._printf_core) for _printf_core
    printf1.o(i.__0vsnprintf$1) refers to printf1.o(i._snputc) for _snputc
    printf1.o(i.__0vsprintf$1) refers to printf1.o(i._printf_core) for _printf_core
    printf1.o(i.__0vsprintf$1) refers to printf1.o(i._sputc) for _sputc
    printf1.o(i._printf_core) refers to uidiv.o(.text) for __aeabi_uidivmod
    printf2.o(i.__0fprintf$2) refers to printf2.o(i._printf_core) for _printf_core
    printf2.o(i.__0fprintf$2) refers to stubs.o(.text) for fputc
    printf2.o(i.__0printf$2) refers to printf2.o(i._printf_core) for _printf_core
    printf2.o(i.__0printf$2) refers to stubs.o(.text) for fputc
    printf2.o(i.__0printf$2) refers to stdout.o(.data) for __stdout
    printf2.o(i.__0snprintf$2) refers to printf2.o(i._printf_core) for _printf_core
    printf2.o(i.__0snprintf$2) refers to printf2.o(i._snputc) for _snputc
    printf2.o(i.__0sprintf$2) refers to printf2.o(i._printf_core) for _printf_core
    printf2.o(i.__0sprintf$2) refers to printf2.o(i._sputc) for _sputc
    printf2.o(i.__0vfprintf$2) refers to printf2.o(i._printf_core) for _printf_core
    printf2.o(i.__0vfprintf$2) refers to stubs.o(.text) for fputc
    printf2.o(i.__0vprintf$2) refers to printf2.o(i._printf_core) for _printf_core
    printf2.o(i.__0vprintf$2) refers to stubs.o(.text) for fputc
    printf2.o(i.__0vprintf$2) refers to stdout.o(.data) for __stdout
    printf2.o(i.__0vsnprintf$2) refers to printf2.o(i._printf_core) for _printf_core
    printf2.o(i.__0vsnprintf$2) refers to printf2.o(i._snputc) for _snputc
    printf2.o(i.__0vsprintf$2) refers to printf2.o(i._printf_core) for _printf_core
    printf2.o(i.__0vsprintf$2) refers to printf2.o(i._sputc) for _sputc
    printf3.o(i.__0fprintf$3) refers to printf3.o(i._printf_core) for _printf_core
    printf3.o(i.__0fprintf$3) refers to stubs.o(.text) for fputc
    printf3.o(i.__0printf$3) refers to printf3.o(i._printf_core) for _printf_core
    printf3.o(i.__0printf$3) refers to stubs.o(.text) for fputc
    printf3.o(i.__0printf$3) refers to stdout.o(.data) for __stdout
    printf3.o(i.__0snprintf$3) refers to printf3.o(i._printf_core) for _printf_core
    printf3.o(i.__0snprintf$3) refers to printf3.o(i._snputc) for _snputc
    printf3.o(i.__0sprintf$3) refers to printf3.o(i._printf_core) for _printf_core
    printf3.o(i.__0sprintf$3) refers to printf3.o(i._sputc) for _sputc
    printf3.o(i.__0vfprintf$3) refers to printf3.o(i._printf_core) for _printf_core
    printf3.o(i.__0vfprintf$3) refers to stubs.o(.text) for fputc
    printf3.o(i.__0vprintf$3) refers to printf3.o(i._printf_core) for _printf_core
    printf3.o(i.__0vprintf$3) refers to stubs.o(.text) for fputc
    printf3.o(i.__0vprintf$3) refers to stdout.o(.data) for __stdout
    printf3.o(i.__0vsnprintf$3) refers to printf3.o(i._printf_core) for _printf_core
    printf3.o(i.__0vsnprintf$3) refers to printf3.o(i._snputc) for _snputc
    printf3.o(i.__0vsprintf$3) refers to printf3.o(i._printf_core) for _printf_core
    printf3.o(i.__0vsprintf$3) refers to printf3.o(i._sputc) for _sputc
    printf3.o(i._printf_core) refers to uidiv.o(.text) for __aeabi_uidivmod
    printf4.o(i.__0fprintf$4) refers to printf4.o(i._printf_core) for _printf_core
    printf4.o(i.__0fprintf$4) refers to stubs.o(.text) for fputc
    printf4.o(i.__0printf$4) refers to printf4.o(i._printf_core) for _printf_core
    printf4.o(i.__0printf$4) refers to stubs.o(.text) for fputc
    printf4.o(i.__0printf$4) refers to stdout.o(.data) for __stdout
    printf4.o(i.__0snprintf$4) refers to printf4.o(i._printf_core) for _printf_core
    printf4.o(i.__0snprintf$4) refers to printf4.o(i._snputc) for _snputc
    printf4.o(i.__0sprintf$4) refers to printf4.o(i._printf_core) for _printf_core
    printf4.o(i.__0sprintf$4) refers to printf4.o(i._sputc) for _sputc
    printf4.o(i.__0vfprintf$4) refers to printf4.o(i._printf_core) for _printf_core
    printf4.o(i.__0vfprintf$4) refers to stubs.o(.text) for fputc
    printf4.o(i.__0vprintf$4) refers to printf4.o(i._printf_core) for _printf_core
    printf4.o(i.__0vprintf$4) refers to stubs.o(.text) for fputc
    printf4.o(i.__0vprintf$4) refers to stdout.o(.data) for __stdout
    printf4.o(i.__0vsnprintf$4) refers to printf4.o(i._printf_core) for _printf_core
    printf4.o(i.__0vsnprintf$4) refers to printf4.o(i._snputc) for _snputc
    printf4.o(i.__0vsprintf$4) refers to printf4.o(i._printf_core) for _printf_core
    printf4.o(i.__0vsprintf$4) refers to printf4.o(i._sputc) for _sputc
    printf4.o(i._printf_core) refers to uldiv.o(.text) for __aeabi_uldivmod
    printf5.o(i.__0fprintf$5) refers to printf5.o(i._printf_core) for _printf_core
    printf5.o(i.__0fprintf$5) refers to stubs.o(.text) for fputc
    printf5.o(i.__0printf$5) refers to printf5.o(i._printf_core) for _printf_core
    printf5.o(i.__0printf$5) refers to stubs.o(.text) for fputc
    printf5.o(i.__0printf$5) refers to stdout.o(.data) for __stdout
    printf5.o(i.__0snprintf$5) refers to printf5.o(i._printf_core) for _printf_core
    printf5.o(i.__0snprintf$5) refers to printf5.o(i._snputc) for _snputc
    printf5.o(i.__0sprintf$5) refers to printf5.o(i._printf_core) for _printf_core
    printf5.o(i.__0sprintf$5) refers to printf5.o(i._sputc) for _sputc
    printf5.o(i.__0vfprintf$5) refers to printf5.o(i._printf_core) for _printf_core
    printf5.o(i.__0vfprintf$5) refers to stubs.o(.text) for fputc
    printf5.o(i.__0vprintf$5) refers to printf5.o(i._printf_core) for _printf_core
    printf5.o(i.__0vprintf$5) refers to stubs.o(.text) for fputc
    printf5.o(i.__0vprintf$5) refers to stdout.o(.data) for __stdout
    printf5.o(i.__0vsnprintf$5) refers to printf5.o(i._printf_core) for _printf_core
    printf5.o(i.__0vsnprintf$5) refers to printf5.o(i._snputc) for _snputc
    printf5.o(i.__0vsprintf$5) refers to printf5.o(i._printf_core) for _printf_core
    printf5.o(i.__0vsprintf$5) refers to printf5.o(i._sputc) for _sputc
    printf5.o(i._printf_core) refers to uldiv.o(.text) for __aeabi_uldivmod
    printf6.o(i.__0fprintf$6) refers to printf6.o(i._printf_core) for _printf_core
    printf6.o(i.__0fprintf$6) refers to stubs.o(.text) for fputc
    printf6.o(i.__0printf$6) refers to printf6.o(i._printf_core) for _printf_core
    printf6.o(i.__0printf$6) refers to stubs.o(.text) for fputc
    printf6.o(i.__0printf$6) refers to stdout.o(.data) for __stdout
    printf6.o(i.__0snprintf$6) refers to printf6.o(i._printf_core) for _printf_core
    printf6.o(i.__0snprintf$6) refers to printf6.o(i._snputc) for _snputc
    printf6.o(i.__0sprintf$6) refers to printf6.o(i._printf_core) for _printf_core
    printf6.o(i.__0sprintf$6) refers to printf6.o(i._sputc) for _sputc
    printf6.o(i.__0vfprintf$6) refers to printf6.o(i._printf_core) for _printf_core
    printf6.o(i.__0vfprintf$6) refers to stubs.o(.text) for fputc
    printf6.o(i.__0vprintf$6) refers to printf6.o(i._printf_core) for _printf_core
    printf6.o(i.__0vprintf$6) refers to stubs.o(.text) for fputc
    printf6.o(i.__0vprintf$6) refers to stdout.o(.data) for __stdout
    printf6.o(i.__0vsnprintf$6) refers to printf6.o(i._printf_core) for _printf_core
    printf6.o(i.__0vsnprintf$6) refers to printf6.o(i._snputc) for _snputc
    printf6.o(i.__0vsprintf$6) refers to printf6.o(i._printf_core) for _printf_core
    printf6.o(i.__0vsprintf$6) refers to printf6.o(i._sputc) for _sputc
    printf6.o(i._printf_core) refers to printf6.o(i._printf_pre_padding) for _printf_pre_padding
    printf6.o(i._printf_core) refers to uidiv.o(.text) for __aeabi_uidivmod
    printf6.o(i._printf_core) refers to printf6.o(i._printf_post_padding) for _printf_post_padding
    printf7.o(i.__0fprintf$7) refers to printf7.o(i._printf_core) for _printf_core
    printf7.o(i.__0fprintf$7) refers to stubs.o(.text) for fputc
    printf7.o(i.__0printf$7) refers to printf7.o(i._printf_core) for _printf_core
    printf7.o(i.__0printf$7) refers to stubs.o(.text) for fputc
    printf7.o(i.__0printf$7) refers to stdout.o(.data) for __stdout
    printf7.o(i.__0snprintf$7) refers to printf7.o(i._printf_core) for _printf_core
    printf7.o(i.__0snprintf$7) refers to printf7.o(i._snputc) for _snputc
    printf7.o(i.__0sprintf$7) refers to printf7.o(i._printf_core) for _printf_core
    printf7.o(i.__0sprintf$7) refers to printf7.o(i._sputc) for _sputc
    printf7.o(i.__0vfprintf$7) refers to printf7.o(i._printf_core) for _printf_core
    printf7.o(i.__0vfprintf$7) refers to stubs.o(.text) for fputc
    printf7.o(i.__0vprintf$7) refers to printf7.o(i._printf_core) for _printf_core
    printf7.o(i.__0vprintf$7) refers to stubs.o(.text) for fputc
    printf7.o(i.__0vprintf$7) refers to stdout.o(.data) for __stdout
    printf7.o(i.__0vsnprintf$7) refers to printf7.o(i._printf_core) for _printf_core
    printf7.o(i.__0vsnprintf$7) refers to printf7.o(i._snputc) for _snputc
    printf7.o(i.__0vsprintf$7) refers to printf7.o(i._printf_core) for _printf_core
    printf7.o(i.__0vsprintf$7) refers to printf7.o(i._sputc) for _sputc
    printf7.o(i._printf_core) refers to printf7.o(i._printf_pre_padding) for _printf_pre_padding
    printf7.o(i._printf_core) refers to uldiv.o(.text) for __aeabi_uldivmod
    printf7.o(i._printf_core) refers to printf7.o(i._printf_post_padding) for _printf_post_padding
    printf8.o(i.__0fprintf$8) refers to printf8.o(i._printf_core) for _printf_core
    printf8.o(i.__0fprintf$8) refers to stubs.o(.text) for fputc
    printf8.o(i.__0printf$8) refers to printf8.o(i._printf_core) for _printf_core
    printf8.o(i.__0printf$8) refers to stubs.o(.text) for fputc
    printf8.o(i.__0printf$8) refers to stdout.o(.data) for __stdout
    printf8.o(i.__0snprintf$8) refers to printf8.o(i._printf_core) for _printf_core
    printf8.o(i.__0snprintf$8) refers to printf8.o(i._snputc) for _snputc
    printf8.o(i.__0sprintf$8) refers to printf8.o(i._printf_core) for _printf_core
    printf8.o(i.__0sprintf$8) refers to printf8.o(i._sputc) for _sputc
    printf8.o(i.__0vfprintf$8) refers to printf8.o(i._printf_core) for _printf_core
    printf8.o(i.__0vfprintf$8) refers to stubs.o(.text) for fputc
    printf8.o(i.__0vprintf$8) refers to printf8.o(i._printf_core) for _printf_core
    printf8.o(i.__0vprintf$8) refers to stubs.o(.text) for fputc
    printf8.o(i.__0vprintf$8) refers to stdout.o(.data) for __stdout
    printf8.o(i.__0vsnprintf$8) refers to printf8.o(i._printf_core) for _printf_core
    printf8.o(i.__0vsnprintf$8) refers to printf8.o(i._snputc) for _snputc
    printf8.o(i.__0vsprintf$8) refers to printf8.o(i._printf_core) for _printf_core
    printf8.o(i.__0vsprintf$8) refers to printf8.o(i._sputc) for _sputc
    printf8.o(i._printf_core) refers to printf8.o(i._printf_pre_padding) for _printf_pre_padding
    printf8.o(i._printf_core) refers to uldiv.o(.text) for __aeabi_uldivmod
    printf8.o(i._printf_core) refers to printf8.o(i._printf_post_padding) for _printf_post_padding
    printfa.o(i.__0fprintf) refers (Special) to iusefp.o(.text) for __I$use$fp
    printfa.o(i.__0fprintf) refers to printfa.o(i._printf_core) for _printf_core
    printfa.o(i.__0fprintf) refers to stubs.o(.text) for fputc
    printfa.o(i.__0printf) refers (Special) to iusefp.o(.text) for __I$use$fp
    printfa.o(i.__0printf) refers to printfa.o(i._printf_core) for _printf_core
    printfa.o(i.__0printf) refers to stubs.o(.text) for fputc
    printfa.o(i.__0printf) refers to stdout.o(.data) for __stdout
    printfa.o(i.__0snprintf) refers (Special) to iusefp.o(.text) for __I$use$fp
    printfa.o(i.__0snprintf) refers to printfa.o(i._printf_core) for _printf_core
    printfa.o(i.__0snprintf) refers to printfa.o(i._snputc) for _snputc
    printfa.o(i.__0sprintf) refers (Special) to iusefp.o(.text) for __I$use$fp
    printfa.o(i.__0sprintf) refers to printfa.o(i._printf_core) for _printf_core
    printfa.o(i.__0sprintf) refers to printfa.o(i._sputc) for _sputc
    printfa.o(i.__0vfprintf) refers (Special) to iusefp.o(.text) for __I$use$fp
    printfa.o(i.__0vfprintf) refers to printfa.o(i._printf_core) for _printf_core
    printfa.o(i.__0vfprintf) refers to stubs.o(.text) for fputc
    printfa.o(i.__0vprintf) refers (Special) to iusefp.o(.text) for __I$use$fp
    printfa.o(i.__0vprintf) refers to printfa.o(i._printf_core) for _printf_core
    printfa.o(i.__0vprintf) refers to stubs.o(.text) for fputc
    printfa.o(i.__0vprintf) refers to stdout.o(.data) for __stdout
    printfa.o(i.__0vsnprintf) refers (Special) to iusefp.o(.text) for __I$use$fp
    printfa.o(i.__0vsnprintf) refers to printfa.o(i._printf_core) for _printf_core
    printfa.o(i.__0vsnprintf) refers to printfa.o(i._snputc) for _snputc
    printfa.o(i.__0vsprintf) refers (Special) to iusefp.o(.text) for __I$use$fp
    printfa.o(i.__0vsprintf) refers to printfa.o(i._printf_core) for _printf_core
    printfa.o(i.__0vsprintf) refers to printfa.o(i._sputc) for _sputc
    printfa.o(i._fp_digits) refers (Special) to iusefp.o(.text) for __I$use$fp
    printfa.o(i._fp_digits) refers to dmul.o(.text) for __aeabi_dmul
    printfa.o(i._fp_digits) refers to ddiv.o(.text) for __aeabi_ddiv
    printfa.o(i._fp_digits) refers to cdrcmple.o(.text) for __aeabi_cdrcmple
    printfa.o(i._fp_digits) refers to dadd.o(.text) for __aeabi_dadd
    printfa.o(i._fp_digits) refers to dfixul.o(.text) for __aeabi_d2ulz
    printfa.o(i._fp_digits) refers to uldiv.o(.text) for __aeabi_uldivmod
    printfa.o(i._printf_core) refers (Special) to iusefp.o(.text) for __I$use$fp
    printfa.o(i._printf_core) refers to printfa.o(i._printf_pre_padding) for _printf_pre_padding
    printfa.o(i._printf_core) refers to uldiv.o(.text) for __aeabi_uldivmod
    printfa.o(i._printf_core) refers to printfa.o(i._printf_post_padding) for _printf_post_padding
    printfa.o(i._printf_core) refers to printfa.o(i._fp_digits) for _fp_digits
    printfa.o(i._printf_core) refers to uidiv.o(.text) for __aeabi_uidivmod
    printfa.o(i._printf_post_padding) refers (Special) to iusefp.o(.text) for __I$use$fp
    printfa.o(i._printf_pre_padding) refers (Special) to iusefp.o(.text) for __I$use$fp
    printfa.o(i._snputc) refers (Special) to iusefp.o(.text) for __I$use$fp
    printfa.o(i._sputc) refers (Special) to iusefp.o(.text) for __I$use$fp
    errno.o(i.__aeabi_errno_addr) refers to errno.o(.data) for .data
    errno.o(i.__read_errno) refers to errno.o(.data) for .data
    errno.o(i.__set_errno) refers to errno.o(.data) for .data
    atoi.o(.text) refers to errno.o(i.__aeabi_errno_addr) for __aeabi_errno_addr
    atoi.o(.text) refers to strtol.o(.text) for strtol
    fadd.o(.text) refers (Special) to iusefp.o(.text) for __I$use$fp
    fadd.o(.text) refers to fepilogue.o(.text) for _float_epilogue
    fmul.o(.text) refers (Special) to iusefp.o(.text) for __I$use$fp
    fdiv.o(.text) refers (Special) to iusefp.o(.text) for __I$use$fp
    fdiv.o(.text) refers to fepilogue.o(.text) for _float_round
    dadd.o(.text) refers (Special) to iusefp.o(.text) for __I$use$fp
    dadd.o(.text) refers to llshl.o(.text) for __aeabi_llsl
    dadd.o(.text) refers to llsshr.o(.text) for __aeabi_lasr
    dadd.o(.text) refers to depilogue.o(.text) for _double_epilogue
    dmul.o(.text) refers (Special) to iusefp.o(.text) for __I$use$fp
    dmul.o(.text) refers to depilogue.o(.text) for _double_epilogue
    fflti.o(.text) refers (Special) to iusefp.o(.text) for __I$use$fp
    fflti.o(.text) refers to fepilogue.o(.text) for _float_epilogue
    ffltui.o(.text) refers (Special) to iusefp.o(.text) for __I$use$fp
    ffltui.o(.text) refers to fepilogue.o(.text) for _float_epilogue
    dflti.o(.text) refers (Special) to iusefp.o(.text) for __I$use$fp
    dflti.o(.text) refers to depilogue.o(.text) for _double_epilogue
    dfltui.o(.text) refers (Special) to iusefp.o(.text) for __I$use$fp
    dfltui.o(.text) refers to depilogue.o(.text) for _double_epilogue
    ffixi.o(.text) refers (Special) to iusefp.o(.text) for __I$use$fp
    ffixui.o(.text) refers (Special) to iusefp.o(.text) for __I$use$fp
    dfixi.o(.text) refers (Special) to iusefp.o(.text) for __I$use$fp
    dfixi.o(.text) refers to llushr.o(.text) for __aeabi_llsr
    dfixui.o(.text) refers (Special) to iusefp.o(.text) for __I$use$fp
    dfixui.o(.text) refers to llushr.o(.text) for __aeabi_llsr
    f2d.o(.text) refers (Special) to iusefp.o(.text) for __I$use$fp
    cdcmple.o(.text) refers (Special) to iusefp.o(.text) for __I$use$fp
    cdrcmple.o(.text) refers (Special) to iusefp.o(.text) for __I$use$fp
    d2f.o(.text) refers (Special) to iusefp.o(.text) for __I$use$fp
    d2f.o(.text) refers to fepilogue.o(.text) for _float_round
    cfcmple.o(.text) refers (Special) to iusefp.o(.text) for __I$use$fp
    entry2.o(.ARM.Collect$$$$00000001) refers to entry2.o(.ARM.Collect$$$$00002712) for __lit__00000000
    entry2.o(.ARM.Collect$$$$00002712) refers to startup_stm32f103xe.o(STACK) for __initial_sp
    entry2.o(__vectab_stack_and_reset_area) refers to startup_stm32f103xe.o(STACK) for __initial_sp
    entry2.o(__vectab_stack_and_reset_area) refers to entry.o(.ARM.Collect$$$$00000000) for __main
    entry5.o(.ARM.Collect$$$$00000004) refers to init.o(.text) for __scatterload
    entry9a.o(.ARM.Collect$$$$0000000B) refers to components.o(.text) for main
    entry9b.o(.ARM.Collect$$$$0000000C) refers to components.o(.text) for main
    uldiv.o(.text) refers to llushr.o(.text) for __aeabi_llsr
    uldiv.o(.text) refers to llshl.o(.text) for __aeabi_llsl
    strtol.o(.text) refers to ctype_o.o(.text) for __rt_ctype_table
    strtol.o(.text) refers to _strtoul.o(.text) for _strtoul
    strtol.o(.text) refers to errno.o(i.__aeabi_errno_addr) for __aeabi_errno_addr
    depilogue.o(.text) refers to llshl.o(.text) for __aeabi_llsl
    depilogue.o(.text) refers to llushr.o(.text) for __aeabi_llsr
    ddiv.o(.text) refers to depilogue.o(.text) for _double_round
    dsqrt.o(.text) refers to llushr.o(.text) for __aeabi_llsr
    dsqrt.o(.text) refers to depilogue.o(.text) for _double_round
    dfixul.o(.text) refers to llushr.o(.text) for __aeabi_llsr
    dfixul.o(.text) refers to llshl.o(.text) for __aeabi_llsl
    init.o(.text) refers to entry5.o(.ARM.Collect$$$$00000004) for __main_after_scatterload
    ctype_o.o(.text) refers to ctype_o.o(.constdata) for .constdata
    ctype_o.o(.constdata) refers to ctype_o.o(.constdata) for __ctype_table
    isalnum_o.o(.text) refers to ctype_o.o(.text) for __rt_ctype_table
    isalpha_o.o(.text) refers to ctype_o.o(.text) for __rt_ctype_table
    isblank_o.o(.text) refers to ctype_o.o(.constdata) for __ctype_table
    iscntrl_o.o(.text) refers to ctype_o.o(.text) for __rt_ctype_table
    isdigit_o.o(.text) refers to ctype_o.o(.text) for __rt_ctype_table
    isgraph_o.o(.text) refers to ctype_o.o(.text) for __rt_ctype_table
    islower_o.o(.text) refers to ctype_o.o(.text) for __rt_ctype_table
    isprint_o.o(.text) refers to ctype_o.o(.text) for __rt_ctype_table
    ispunct_o.o(.text) refers to ctype_o.o(.text) for __rt_ctype_table
    isspace_o.o(.text) refers to ctype_o.o(.text) for __rt_ctype_table
    isupper_o.o(.text) refers to ctype_o.o(.text) for __rt_ctype_table
    isxdigit_o.o(.text) refers to ctype_o.o(.text) for __rt_ctype_table
    _strtoul.o(.text) refers to _chval.o(.text) for _chval
    _strtoul.o(.text) refers to errno.o(i.__aeabi_errno_addr) for __aeabi_errno_addr


==============================================================================

Removing Unused input sections from the image.

    Removing memheap.o(.text), (1820 bytes).
    Removing memheap.o(.constdata), (86 bytes).
    Removing backtrace.o(.text), (2 bytes).
    Removing div0.o(.text), (4 bytes).
    Removing showmem.o(.text), (120 bytes).
    Removing showmem.o(.constdata), (18 bytes).
    Removing 24cxx.o(.rev16_text), (4 bytes).
    Removing 24cxx.o(.revsh_text), (4 bytes).
    Removing 24cxx.o(.rrx_text), (6 bytes).
    Removing 24l01.o(.rev16_text), (4 bytes).
    Removing 24l01.o(.revsh_text), (4 bytes).
    Removing 24l01.o(.rrx_text), (6 bytes).
    Removing app.o(.rev16_text), (4 bytes).
    Removing app.o(.revsh_text), (4 bytes).
    Removing app.o(.rrx_text), (6 bytes).
    Removing beep.o(.rev16_text), (4 bytes).
    Removing beep.o(.revsh_text), (4 bytes).
    Removing beep.o(.rrx_text), (6 bytes).
    Removing bsp_adc.o(.rev16_text), (4 bytes).
    Removing bsp_adc.o(.revsh_text), (4 bytes).
    Removing bsp_adc.o(.rrx_text), (6 bytes).
    Removing bsp_ds18b20.o(.rev16_text), (4 bytes).
    Removing bsp_ds18b20.o(.revsh_text), (4 bytes).
    Removing bsp_ds18b20.o(.rrx_text), (6 bytes).
    Removing bsp_ds18b20.o(.data), (21 bytes).
    Removing bsp_gsm.o(.rev16_text), (4 bytes).
    Removing bsp_gsm.o(.revsh_text), (4 bytes).
    Removing bsp_gsm.o(.rrx_text), (6 bytes).
    Removing bsp_key.o(.rev16_text), (4 bytes).
    Removing bsp_key.o(.revsh_text), (4 bytes).
    Removing bsp_key.o(.rrx_text), (6 bytes).
    Removing bsp_key.o(.text), (300 bytes).
    Removing bsp_key.o(.data), (1 bytes).
    Removing bsp_led.o(.rev16_text), (4 bytes).
    Removing bsp_led.o(.revsh_text), (4 bytes).
    Removing bsp_led.o(.rrx_text), (6 bytes).
    Removing bsp_rsd.o(.rev16_text), (4 bytes).
    Removing bsp_rsd.o(.revsh_text), (4 bytes).
    Removing bsp_rsd.o(.rrx_text), (6 bytes).
    Removing bsp_timer.o(.rev16_text), (4 bytes).
    Removing bsp_timer.o(.revsh_text), (4 bytes).
    Removing bsp_timer.o(.rrx_text), (6 bytes).
    Removing bsp_wb.o(.rev16_text), (4 bytes).
    Removing bsp_wb.o(.revsh_text), (4 bytes).
    Removing bsp_wb.o(.rrx_text), (6 bytes).
    Removing ctiic.o(.rev16_text), (4 bytes).
    Removing ctiic.o(.revsh_text), (4 bytes).
    Removing ctiic.o(.rrx_text), (6 bytes).
    Removing delay.o(.rev16_text), (4 bytes).
    Removing delay.o(.revsh_text), (4 bytes).
    Removing delay.o(.rrx_text), (6 bytes).
    Removing dht11.o(.rev16_text), (4 bytes).
    Removing dht11.o(.revsh_text), (4 bytes).
    Removing dht11.o(.rrx_text), (6 bytes).
    Removing dm9000.o(.rev16_text), (4 bytes).
    Removing dm9000.o(.revsh_text), (4 bytes).
    Removing dm9000.o(.rrx_text), (6 bytes).
    Removing font.o(.constdata), (5208 bytes).
    Removing ft5206.o(.rev16_text), (4 bytes).
    Removing ft5206.o(.revsh_text), (4 bytes).
    Removing ft5206.o(.rrx_text), (6 bytes).
    Removing gt9147.o(.rev16_text), (4 bytes).
    Removing gt9147.o(.revsh_text), (4 bytes).
    Removing gt9147.o(.rrx_text), (6 bytes).
    Removing lcd.o(.rev16_text), (4 bytes).
    Removing lcd.o(.revsh_text), (4 bytes).
    Removing lcd.o(.rrx_text), (6 bytes).
    Removing mailbox.o(.rev16_text), (4 bytes).
    Removing mailbox.o(.revsh_text), (4 bytes).
    Removing mailbox.o(.rrx_text), (6 bytes).
    Removing mailbox.o(.text), (708 bytes).
    Removing mailbox.o(.bss), (2076 bytes).
    Removing mailbox.o(.data), (56 bytes).
    Removing main.o(.rev16_text), (4 bytes).
    Removing main.o(.revsh_text), (4 bytes).
    Removing main.o(.rrx_text), (6 bytes).
    Removing myiic.o(.rev16_text), (4 bytes).
    Removing myiic.o(.revsh_text), (4 bytes).
    Removing myiic.o(.rrx_text), (6 bytes).
    Removing ott2001a.o(.rev16_text), (4 bytes).
    Removing ott2001a.o(.revsh_text), (4 bytes).
    Removing ott2001a.o(.rrx_text), (6 bytes).
    Removing pic.o(.constdata), (2048 bytes).
    Removing public.o(.rev16_text), (4 bytes).
    Removing public.o(.revsh_text), (4 bytes).
    Removing public.o(.rrx_text), (6 bytes).
    Removing remote.o(.rev16_text), (4 bytes).
    Removing remote.o(.revsh_text), (4 bytes).
    Removing remote.o(.rrx_text), (6 bytes).
    Removing rtc.o(.rev16_text), (4 bytes).
    Removing rtc.o(.revsh_text), (4 bytes).
    Removing rtc.o(.rrx_text), (6 bytes).
    Removing spi.o(.rev16_text), (4 bytes).
    Removing spi.o(.revsh_text), (4 bytes).
    Removing spi.o(.rrx_text), (6 bytes).
    Removing sys.o(.rev16_text), (4 bytes).
    Removing sys.o(.revsh_text), (4 bytes).
    Removing sys.o(.rrx_text), (6 bytes).
    Removing sys.o(.emb_text), (6 bytes).
    Removing sys.o(.text), (12 bytes).
    Removing touch.o(.rev16_text), (4 bytes).
    Removing touch.o(.revsh_text), (4 bytes).
    Removing touch.o(.rrx_text), (6 bytes).
    Removing usart.o(.rev16_text), (4 bytes).
    Removing usart.o(.revsh_text), (4 bytes).
    Removing usart.o(.rrx_text), (6 bytes).
    Removing sram.o(.rev16_text), (4 bytes).
    Removing sram.o(.revsh_text), (4 bytes).
    Removing sram.o(.rrx_text), (6 bytes).
    Removing sram.o(.text), (364 bytes).
    Removing sram.o(.bss), (68 bytes).
    Removing board.o(.rev16_text), (4 bytes).
    Removing board.o(.revsh_text), (4 bytes).
    Removing board.o(.rrx_text), (6 bytes).
    Removing stm32f1xx_it.o(.rev16_text), (4 bytes).
    Removing stm32f1xx_it.o(.revsh_text), (4 bytes).
    Removing stm32f1xx_it.o(.rrx_text), (6 bytes).
    Removing drv_gpio.o(.rev16_text), (4 bytes).
    Removing drv_gpio.o(.revsh_text), (4 bytes).
    Removing drv_gpio.o(.rrx_text), (6 bytes).
    Removing drv_usart.o(.rev16_text), (4 bytes).
    Removing drv_usart.o(.revsh_text), (4 bytes).
    Removing drv_usart.o(.rrx_text), (6 bytes).
    Removing system_stm32f1xx.o(.rev16_text), (4 bytes).
    Removing system_stm32f1xx.o(.revsh_text), (4 bytes).
    Removing system_stm32f1xx.o(.rrx_text), (6 bytes).
    Removing stm32f1xx_hal_adc.o(.rev16_text), (4 bytes).
    Removing stm32f1xx_hal_adc.o(.revsh_text), (4 bytes).
    Removing stm32f1xx_hal_adc.o(.rrx_text), (6 bytes).
    Removing stm32f1xx_hal_adc_ex.o(.rev16_text), (4 bytes).
    Removing stm32f1xx_hal_adc_ex.o(.revsh_text), (4 bytes).
    Removing stm32f1xx_hal_adc_ex.o(.rrx_text), (6 bytes).
    Removing stm32f1xx_hal_gpio.o(.rev16_text), (4 bytes).
    Removing stm32f1xx_hal_gpio.o(.revsh_text), (4 bytes).
    Removing stm32f1xx_hal_gpio.o(.rrx_text), (6 bytes).
    Removing stm32f1xx_hal_gpio_ex.o(.rev16_text), (4 bytes).
    Removing stm32f1xx_hal_gpio_ex.o(.revsh_text), (4 bytes).
    Removing stm32f1xx_hal_gpio_ex.o(.rrx_text), (6 bytes).
    Removing stm32f1xx_hal_gpio_ex.o(.text), (52 bytes).
    Removing stm32f1xx_hal_flash.o(.rev16_text), (4 bytes).
    Removing stm32f1xx_hal_flash.o(.revsh_text), (4 bytes).
    Removing stm32f1xx_hal_flash.o(.rrx_text), (6 bytes).
    Removing stm32f1xx_hal_flash.o(.text), (1052 bytes).
    Removing stm32f1xx_hal_flash.o(.bss), (32 bytes).
    Removing stm32f1xx_hal_flash_ex.o(.rev16_text), (4 bytes).
    Removing stm32f1xx_hal_flash_ex.o(.revsh_text), (4 bytes).
    Removing stm32f1xx_hal_flash_ex.o(.rrx_text), (6 bytes).
    Removing stm32f1xx_hal_flash_ex.o(.text), (1424 bytes).
    Removing stm32f1xx_hal_dma.o(.rev16_text), (4 bytes).
    Removing stm32f1xx_hal_dma.o(.revsh_text), (4 bytes).
    Removing stm32f1xx_hal_dma.o(.rrx_text), (6 bytes).
    Removing stm32f1xx_hal_cortex.o(.rev16_text), (4 bytes).
    Removing stm32f1xx_hal_cortex.o(.revsh_text), (4 bytes).
    Removing stm32f1xx_hal_cortex.o(.rrx_text), (6 bytes).
    Removing stm32f1xx_hal_crc.o(.rev16_text), (4 bytes).
    Removing stm32f1xx_hal_crc.o(.revsh_text), (4 bytes).
    Removing stm32f1xx_hal_crc.o(.rrx_text), (6 bytes).
    Removing stm32f1xx_hal_i2c.o(.rev16_text), (4 bytes).
    Removing stm32f1xx_hal_i2c.o(.revsh_text), (4 bytes).
    Removing stm32f1xx_hal_i2c.o(.rrx_text), (6 bytes).
    Removing stm32f1xx_hal_irda.o(.rev16_text), (4 bytes).
    Removing stm32f1xx_hal_irda.o(.revsh_text), (4 bytes).
    Removing stm32f1xx_hal_irda.o(.rrx_text), (6 bytes).
    Removing stm32f1xx_hal_iwdg.o(.rev16_text), (4 bytes).
    Removing stm32f1xx_hal_iwdg.o(.revsh_text), (4 bytes).
    Removing stm32f1xx_hal_iwdg.o(.rrx_text), (6 bytes).
    Removing stm32f1xx_hal_iwdg.o(.text), (94 bytes).
    Removing stm32f1xx_hal_pwr.o(.rev16_text), (4 bytes).
    Removing stm32f1xx_hal_pwr.o(.revsh_text), (4 bytes).
    Removing stm32f1xx_hal_pwr.o(.rrx_text), (6 bytes).
    Removing stm32f1xx_hal_rcc.o(.rev16_text), (4 bytes).
    Removing stm32f1xx_hal_rcc.o(.revsh_text), (4 bytes).
    Removing stm32f1xx_hal_rcc.o(.rrx_text), (6 bytes).
    Removing stm32f1xx_hal_rcc_ex.o(.rev16_text), (4 bytes).
    Removing stm32f1xx_hal_rcc_ex.o(.revsh_text), (4 bytes).
    Removing stm32f1xx_hal_rcc_ex.o(.rrx_text), (6 bytes).
    Removing stm32f1xx_hal_rtc.o(.rev16_text), (4 bytes).
    Removing stm32f1xx_hal_rtc.o(.revsh_text), (4 bytes).
    Removing stm32f1xx_hal_rtc.o(.rrx_text), (6 bytes).
    Removing stm32f1xx_hal_rtc_ex.o(.rev16_text), (4 bytes).
    Removing stm32f1xx_hal_rtc_ex.o(.revsh_text), (4 bytes).
    Removing stm32f1xx_hal_rtc_ex.o(.rrx_text), (6 bytes).
    Removing stm32f1xx_hal_smartcard.o(.rev16_text), (4 bytes).
    Removing stm32f1xx_hal_smartcard.o(.revsh_text), (4 bytes).
    Removing stm32f1xx_hal_smartcard.o(.rrx_text), (6 bytes).
    Removing stm32f1xx_hal_spi.o(.rev16_text), (4 bytes).
    Removing stm32f1xx_hal_spi.o(.revsh_text), (4 bytes).
    Removing stm32f1xx_hal_spi.o(.rrx_text), (6 bytes).
    Removing stm32f1xx_hal_spi_ex.o(.rev16_text), (4 bytes).
    Removing stm32f1xx_hal_spi_ex.o(.revsh_text), (4 bytes).
    Removing stm32f1xx_hal_spi_ex.o(.rrx_text), (6 bytes).
    Removing stm32f1xx_hal_tim.o(.rev16_text), (4 bytes).
    Removing stm32f1xx_hal_tim.o(.revsh_text), (4 bytes).
    Removing stm32f1xx_hal_tim.o(.rrx_text), (6 bytes).
    Removing stm32f1xx_hal_tim_ex.o(.rev16_text), (4 bytes).
    Removing stm32f1xx_hal_tim_ex.o(.revsh_text), (4 bytes).
    Removing stm32f1xx_hal_tim_ex.o(.rrx_text), (6 bytes).
    Removing stm32f1xx_hal_uart.o(.rev16_text), (4 bytes).
    Removing stm32f1xx_hal_uart.o(.revsh_text), (4 bytes).
    Removing stm32f1xx_hal_uart.o(.rrx_text), (6 bytes).
    Removing stm32f1xx_hal_usart.o(.rev16_text), (4 bytes).
    Removing stm32f1xx_hal_usart.o(.revsh_text), (4 bytes).
    Removing stm32f1xx_hal_usart.o(.rrx_text), (6 bytes).
    Removing stm32f1xx_hal_usart.o(.text), (4412 bytes).
    Removing stm32f1xx_hal_wwdg.o(.rev16_text), (4 bytes).
    Removing stm32f1xx_hal_wwdg.o(.revsh_text), (4 bytes).
    Removing stm32f1xx_hal_wwdg.o(.rrx_text), (6 bytes).
    Removing stm32f1xx_hal.o(.rev16_text), (4 bytes).
    Removing stm32f1xx_hal.o(.revsh_text), (4 bytes).
    Removing stm32f1xx_hal.o(.rrx_text), (6 bytes).
    Removing stm32f1xx_ll_fsmc.o(.rev16_text), (4 bytes).
    Removing stm32f1xx_ll_fsmc.o(.revsh_text), (4 bytes).
    Removing stm32f1xx_ll_fsmc.o(.rrx_text), (6 bytes).
    Removing stm32f1xx_ll_sdmmc.o(.rev16_text), (4 bytes).
    Removing stm32f1xx_ll_sdmmc.o(.revsh_text), (4 bytes).
    Removing stm32f1xx_ll_sdmmc.o(.rrx_text), (6 bytes).
    Removing stm32f1xx_ll_usb.o(.rev16_text), (4 bytes).
    Removing stm32f1xx_ll_usb.o(.revsh_text), (4 bytes).
    Removing stm32f1xx_ll_usb.o(.rrx_text), (6 bytes).
    Removing stm32f1xx_ll_utils.o(.rev16_text), (4 bytes).
    Removing stm32f1xx_ll_utils.o(.revsh_text), (4 bytes).
    Removing stm32f1xx_ll_utils.o(.rrx_text), (6 bytes).
    Removing stm32f1xx_ll_utils.o(.text), (720 bytes).
    Removing stm32f1xx_hal_can.o(.rev16_text), (4 bytes).
    Removing stm32f1xx_hal_can.o(.revsh_text), (4 bytes).
    Removing stm32f1xx_hal_can.o(.rrx_text), (6 bytes).
    Removing stm32f1xx_hal_dac.o(.rev16_text), (4 bytes).
    Removing stm32f1xx_hal_dac.o(.revsh_text), (4 bytes).
    Removing stm32f1xx_hal_dac.o(.rrx_text), (6 bytes).
    Removing stm32f1xx_hal_dac_ex.o(.rev16_text), (4 bytes).
    Removing stm32f1xx_hal_dac_ex.o(.revsh_text), (4 bytes).
    Removing stm32f1xx_hal_dac_ex.o(.rrx_text), (6 bytes).
    Removing stm32f1xx_hal_i2s.o(.rev16_text), (4 bytes).
    Removing stm32f1xx_hal_i2s.o(.revsh_text), (4 bytes).
    Removing stm32f1xx_hal_i2s.o(.rrx_text), (6 bytes).
    Removing stm32f1xx_hal_mmc.o(.rev16_text), (4 bytes).
    Removing stm32f1xx_hal_mmc.o(.revsh_text), (4 bytes).
    Removing stm32f1xx_hal_mmc.o(.rrx_text), (6 bytes).
    Removing stm32f1xx_hal_sd.o(.rev16_text), (4 bytes).
    Removing stm32f1xx_hal_sd.o(.revsh_text), (4 bytes).
    Removing stm32f1xx_hal_sd.o(.rrx_text), (6 bytes).
    Removing stm32f1xx_hal_nand.o(.rev16_text), (4 bytes).
    Removing stm32f1xx_hal_nand.o(.revsh_text), (4 bytes).
    Removing stm32f1xx_hal_nand.o(.rrx_text), (6 bytes).
    Removing stm32f1xx_hal_pccard.o(.rev16_text), (4 bytes).
    Removing stm32f1xx_hal_pccard.o(.revsh_text), (4 bytes).
    Removing stm32f1xx_hal_pccard.o(.rrx_text), (6 bytes).
    Removing stm32f1xx_hal_nor.o(.rev16_text), (4 bytes).
    Removing stm32f1xx_hal_nor.o(.revsh_text), (4 bytes).
    Removing stm32f1xx_hal_nor.o(.rrx_text), (6 bytes).
    Removing stm32f1xx_hal_sram.o(.rev16_text), (4 bytes).
    Removing stm32f1xx_hal_sram.o(.revsh_text), (4 bytes).
    Removing stm32f1xx_hal_sram.o(.rrx_text), (6 bytes).
    Removing stm32f1xx_hal_pcd.o(.rev16_text), (4 bytes).
    Removing stm32f1xx_hal_pcd.o(.revsh_text), (4 bytes).
    Removing stm32f1xx_hal_pcd.o(.rrx_text), (6 bytes).
    Removing stm32f1xx_hal_pcd_ex.o(.rev16_text), (4 bytes).
    Removing stm32f1xx_hal_pcd_ex.o(.revsh_text), (4 bytes).
    Removing stm32f1xx_hal_pcd_ex.o(.rrx_text), (6 bytes).
    Removing startup_stm32f103xe.o(HEAP), (512 bytes).
    Removing dataqueue.o(.text), (1060 bytes).
    Removing dataqueue.o(.constdata), (75 bytes).
    Removing pipe.o(.text), (636 bytes).
    Removing pipe.o(.constdata), (30 bytes).
    Removing ringblk_buf.o(.text), (1644 bytes).
    Removing ringblk_buf.o(.constdata), (274 bytes).
    Removing ringbuffer.o(.text), (1364 bytes).
    Removing ringbuffer.o(.constdata), (214 bytes).
    Removing waitqueue.o(.text), (428 bytes).
    Removing waitqueue.o(.constdata), (15 bytes).
    Removing workqueue.o(.text), (776 bytes).
    Removing workqueue.o(.constdata), (176 bytes).
    Removing mem_std.o(.text), (56 bytes).
    Removing time.o(.text), (68 bytes).
    Removing gmtime_r.o(.text), (256 bytes).
    Removing gmtime_r.o(.constdata), (26 bytes).
    Removing netdb.o(.text), (680 bytes).
    Removing netdb.o(.bss), (20 bytes).
    Removing netdb.o(.data), (20 bytes).
    Removing netifapi.o(.text), (248 bytes).
    Removing core_sys.o(.text), (36 bytes).
    Removing ethernetif.o(.rev16_text), (4 bytes).
    Removing ethernetif.o(.revsh_text), (4 bytes).
    Removing ethernetif.o(.rrx_text), (6 bytes).
    Removing lwip_comm.o(.rev16_text), (4 bytes).
    Removing lwip_comm.o(.revsh_text), (4 bytes).
    Removing lwip_comm.o(.rrx_text), (6 bytes).
    Removing httpd.o(.rev16_text), (4 bytes).
    Removing httpd.o(.revsh_text), (4 bytes).
    Removing httpd.o(.rrx_text), (6 bytes).
    Removing httpd_cgi_ssi.o(.rev16_text), (4 bytes).
    Removing httpd_cgi_ssi.o(.revsh_text), (4 bytes).
    Removing httpd_cgi_ssi.o(.rrx_text), (6 bytes).

293 unused section(s) (total 30466 bytes) removed from the image.

==============================================================================

Image Symbol Table

    Local Symbols

    Symbol Name                              Value     Ov Type        Size  Object(Section)

    ../clib/../cmprslib/zerorunl2.c          0x00000000   Number         0  __dczerorl2.o ABSOLUTE
    ../clib/microlib/ctype/ctype.c           0x00000000   Number         0  isgraph_o.o ABSOLUTE
    ../clib/microlib/ctype/ctype.c           0x00000000   Number         0  isspace_o.o ABSOLUTE
    ../clib/microlib/ctype/ctype.c           0x00000000   Number         0  isprint_o.o ABSOLUTE
    ../clib/microlib/ctype/ctype.c           0x00000000   Number         0  isxdigit_o.o ABSOLUTE
    ../clib/microlib/ctype/ctype.c           0x00000000   Number         0  islower_o.o ABSOLUTE
    ../clib/microlib/ctype/ctype.c           0x00000000   Number         0  isblank_o.o ABSOLUTE
    ../clib/microlib/ctype/ctype.c           0x00000000   Number         0  isupper_o.o ABSOLUTE
    ../clib/microlib/ctype/ctype.c           0x00000000   Number         0  isdigit_o.o ABSOLUTE
    ../clib/microlib/ctype/ctype.c           0x00000000   Number         0  iscntrl_o.o ABSOLUTE
    ../clib/microlib/ctype/ctype.c           0x00000000   Number         0  isalpha_o.o ABSOLUTE
    ../clib/microlib/ctype/ctype.c           0x00000000   Number         0  isalnum_o.o ABSOLUTE
    ../clib/microlib/ctype/ctype.c           0x00000000   Number         0  ctype_o.o ABSOLUTE
    ../clib/microlib/ctype/ctype.c           0x00000000   Number         0  ispunct_o.o ABSOLUTE
    ../clib/microlib/division.c              0x00000000   Number         0  uldiv.o ABSOLUTE
    ../clib/microlib/division.c              0x00000000   Number         0  uidiv.o ABSOLUTE
    ../clib/microlib/errno.c                 0x00000000   Number         0  errno.o ABSOLUTE
    ../clib/microlib/init/entry.s            0x00000000   Number         0  entry5.o ABSOLUTE
    ../clib/microlib/init/entry.s            0x00000000   Number         0  entry7b.o ABSOLUTE
    ../clib/microlib/init/entry.s            0x00000000   Number         0  entry8a.o ABSOLUTE
    ../clib/microlib/init/entry.s            0x00000000   Number         0  entry7a.o ABSOLUTE
    ../clib/microlib/init/entry.s            0x00000000   Number         0  entry.o ABSOLUTE
    ../clib/microlib/init/entry.s            0x00000000   Number         0  entry8b.o ABSOLUTE
    ../clib/microlib/init/entry.s            0x00000000   Number         0  entry9a.o ABSOLUTE
    ../clib/microlib/init/entry.s            0x00000000   Number         0  entry10b.o ABSOLUTE
    ../clib/microlib/init/entry.s            0x00000000   Number         0  entry9b.o ABSOLUTE
    ../clib/microlib/init/entry.s            0x00000000   Number         0  entry10a.o ABSOLUTE
    ../clib/microlib/init/entry.s            0x00000000   Number         0  entry11a.o ABSOLUTE
    ../clib/microlib/init/entry.s            0x00000000   Number         0  entry2.o ABSOLUTE
    ../clib/microlib/init/entry.s            0x00000000   Number         0  entry11b.o ABSOLUTE
    ../clib/microlib/longlong.c              0x00000000   Number         0  llushr.o ABSOLUTE
    ../clib/microlib/longlong.c              0x00000000   Number         0  llsshr.o ABSOLUTE
    ../clib/microlib/longlong.c              0x00000000   Number         0  llshl.o ABSOLUTE
    ../clib/microlib/printf/printf.c         0x00000000   Number         0  printf7.o ABSOLUTE
    ../clib/microlib/printf/printf.c         0x00000000   Number         0  printf6.o ABSOLUTE
    ../clib/microlib/printf/printf.c         0x00000000   Number         0  printf5.o ABSOLUTE
    ../clib/microlib/printf/printf.c         0x00000000   Number         0  printf4.o ABSOLUTE
    ../clib/microlib/printf/printf.c         0x00000000   Number         0  printfa.o ABSOLUTE
    ../clib/microlib/printf/printf.c         0x00000000   Number         0  printf2.o ABSOLUTE
    ../clib/microlib/printf/printf.c         0x00000000   Number         0  printf1.o ABSOLUTE
    ../clib/microlib/printf/printf.c         0x00000000   Number         0  printf0.o ABSOLUTE
    ../clib/microlib/printf/printf.c         0x00000000   Number         0  printfb.o ABSOLUTE
    ../clib/microlib/printf/printf.c         0x00000000   Number         0  printf3.o ABSOLUTE
    ../clib/microlib/printf/printf.c         0x00000000   Number         0  printf8.o ABSOLUTE
    ../clib/microlib/printf/stubs.s          0x00000000   Number         0  stubs.o ABSOLUTE
    ../clib/microlib/stdio/streams.c         0x00000000   Number         0  stdout.o ABSOLUTE
    ../clib/microlib/stdlib/rand.c           0x00000000   Number         0  rand.o ABSOLUTE
    ../clib/microlib/string/memcmp.c         0x00000000   Number         0  memcmp.o ABSOLUTE
    ../clib/microlib/string/memcpy.c         0x00000000   Number         0  memcpya.o ABSOLUTE
    ../clib/microlib/string/memcpy.c         0x00000000   Number         0  memcpyb.o ABSOLUTE
    ../clib/microlib/string/memset.c         0x00000000   Number         0  memseta.o ABSOLUTE
    ../clib/microlib/string/strcat.c         0x00000000   Number         0  strcat.o ABSOLUTE
    ../clib/microlib/string/strchr.c         0x00000000   Number         0  strchr.o ABSOLUTE
    ../clib/microlib/string/strcmp.c         0x00000000   Number         0  strcmp.o ABSOLUTE
    ../clib/microlib/string/strcpy.c         0x00000000   Number         0  strcpy.o ABSOLUTE
    ../clib/microlib/string/strlen.c         0x00000000   Number         0  strlen.o ABSOLUTE
    ../clib/microlib/string/strncmp.c        0x00000000   Number         0  strncmp.o ABSOLUTE
    ../clib/microlib/string/strncpy.c        0x00000000   Number         0  strncpy.o ABSOLUTE
    ../clib/microlib/string/strstr.c         0x00000000   Number         0  strstr.o ABSOLUTE
    ../clib/microlib/stubs.s                 0x00000000   Number         0  iusefp.o ABSOLUTE
    ../clib/microlib/stubs.s                 0x00000000   Number         0  useno.o ABSOLUTE
    ../clib/scanf.c                          0x00000000   Number         0  _chval.o ABSOLUTE
    ../clib/scanf.c                          0x00000000   Number         0  _strtoul.o ABSOLUTE
    ../clib/scanf.c                          0x00000000   Number         0  atoi.o ABSOLUTE
    ../clib/scanf.c                          0x00000000   Number         0  strtol.o ABSOLUTE
    ../fplib/microlib/d2f.c                  0x00000000   Number         0  d2f.o ABSOLUTE
    ../fplib/microlib/f2d.c                  0x00000000   Number         0  f2d.o ABSOLUTE
    ../fplib/microlib/fpadd.c                0x00000000   Number         0  fadd.o ABSOLUTE
    ../fplib/microlib/fpadd.c                0x00000000   Number         0  dadd.o ABSOLUTE
    ../fplib/microlib/fpdiv.c                0x00000000   Number         0  ddiv.o ABSOLUTE
    ../fplib/microlib/fpdiv.c                0x00000000   Number         0  fdiv.o ABSOLUTE
    ../fplib/microlib/fpepilogue.c           0x00000000   Number         0  depilogue.o ABSOLUTE
    ../fplib/microlib/fpepilogue.c           0x00000000   Number         0  fepilogue.o ABSOLUTE
    ../fplib/microlib/fpfix.c                0x00000000   Number         0  ffixi.o ABSOLUTE
    ../fplib/microlib/fpfix.c                0x00000000   Number         0  ffixui.o ABSOLUTE
    ../fplib/microlib/fpfix.c                0x00000000   Number         0  dfixi.o ABSOLUTE
    ../fplib/microlib/fpfix.c                0x00000000   Number         0  dfixui.o ABSOLUTE
    ../fplib/microlib/fpfix.c                0x00000000   Number         0  dfixul.o ABSOLUTE
    ../fplib/microlib/fpflt.c                0x00000000   Number         0  dflti.o ABSOLUTE
    ../fplib/microlib/fpflt.c                0x00000000   Number         0  ffltui.o ABSOLUTE
    ../fplib/microlib/fpflt.c                0x00000000   Number         0  fflti.o ABSOLUTE
    ../fplib/microlib/fpflt.c                0x00000000   Number         0  dfltui.o ABSOLUTE
    ../fplib/microlib/fpmul.c                0x00000000   Number         0  fmul.o ABSOLUTE
    ../fplib/microlib/fpmul.c                0x00000000   Number         0  dmul.o ABSOLUTE
    ../fplib/microlib/fpsqrt.c               0x00000000   Number         0  dsqrt.o ABSOLUTE
    ../mathlib/sqrt.c                        0x00000000   Number         0  sqrt.o ABSOLUTE
    ../mathlib/sqrt.c                        0x00000000   Number         0  sqrt_x.o ABSOLUTE
    Libraries\CMSIS\Device\ST\STM32F1xx\Source\Templates\arm\startup_stm32f103xe.s 0x00000000   Number         0  startup_stm32f103xe.o ABSOLUTE
    Libraries\CMSIS\Device\ST\STM32F1xx\Source\Templates\system_stm32f1xx.c 0x00000000   Number         0  system_stm32f1xx.o ABSOLUTE
    Libraries\STM32F1xx_HAL_Driver\Src\stm32f1xx_hal.c 0x00000000   Number         0  stm32f1xx_hal.o ABSOLUTE
    Libraries\STM32F1xx_HAL_Driver\Src\stm32f1xx_hal_adc.c 0x00000000   Number         0  stm32f1xx_hal_adc.o ABSOLUTE
    Libraries\STM32F1xx_HAL_Driver\Src\stm32f1xx_hal_adc_ex.c 0x00000000   Number         0  stm32f1xx_hal_adc_ex.o ABSOLUTE
    Libraries\STM32F1xx_HAL_Driver\Src\stm32f1xx_hal_can.c 0x00000000   Number         0  stm32f1xx_hal_can.o ABSOLUTE
    Libraries\STM32F1xx_HAL_Driver\Src\stm32f1xx_hal_cortex.c 0x00000000   Number         0  stm32f1xx_hal_cortex.o ABSOLUTE
    Libraries\STM32F1xx_HAL_Driver\Src\stm32f1xx_hal_crc.c 0x00000000   Number         0  stm32f1xx_hal_crc.o ABSOLUTE
    Libraries\STM32F1xx_HAL_Driver\Src\stm32f1xx_hal_dac.c 0x00000000   Number         0  stm32f1xx_hal_dac.o ABSOLUTE
    Libraries\STM32F1xx_HAL_Driver\Src\stm32f1xx_hal_dac_ex.c 0x00000000   Number         0  stm32f1xx_hal_dac_ex.o ABSOLUTE
    Libraries\STM32F1xx_HAL_Driver\Src\stm32f1xx_hal_dma.c 0x00000000   Number         0  stm32f1xx_hal_dma.o ABSOLUTE
    Libraries\STM32F1xx_HAL_Driver\Src\stm32f1xx_hal_flash.c 0x00000000   Number         0  stm32f1xx_hal_flash.o ABSOLUTE
    Libraries\STM32F1xx_HAL_Driver\Src\stm32f1xx_hal_flash_ex.c 0x00000000   Number         0  stm32f1xx_hal_flash_ex.o ABSOLUTE
    Libraries\STM32F1xx_HAL_Driver\Src\stm32f1xx_hal_gpio.c 0x00000000   Number         0  stm32f1xx_hal_gpio.o ABSOLUTE
    Libraries\STM32F1xx_HAL_Driver\Src\stm32f1xx_hal_gpio_ex.c 0x00000000   Number         0  stm32f1xx_hal_gpio_ex.o ABSOLUTE
    Libraries\STM32F1xx_HAL_Driver\Src\stm32f1xx_hal_i2c.c 0x00000000   Number         0  stm32f1xx_hal_i2c.o ABSOLUTE
    Libraries\STM32F1xx_HAL_Driver\Src\stm32f1xx_hal_i2s.c 0x00000000   Number         0  stm32f1xx_hal_i2s.o ABSOLUTE
    Libraries\STM32F1xx_HAL_Driver\Src\stm32f1xx_hal_irda.c 0x00000000   Number         0  stm32f1xx_hal_irda.o ABSOLUTE
    Libraries\STM32F1xx_HAL_Driver\Src\stm32f1xx_hal_iwdg.c 0x00000000   Number         0  stm32f1xx_hal_iwdg.o ABSOLUTE
    Libraries\STM32F1xx_HAL_Driver\Src\stm32f1xx_hal_mmc.c 0x00000000   Number         0  stm32f1xx_hal_mmc.o ABSOLUTE
    Libraries\STM32F1xx_HAL_Driver\Src\stm32f1xx_hal_nand.c 0x00000000   Number         0  stm32f1xx_hal_nand.o ABSOLUTE
    Libraries\STM32F1xx_HAL_Driver\Src\stm32f1xx_hal_nor.c 0x00000000   Number         0  stm32f1xx_hal_nor.o ABSOLUTE
    Libraries\STM32F1xx_HAL_Driver\Src\stm32f1xx_hal_pccard.c 0x00000000   Number         0  stm32f1xx_hal_pccard.o ABSOLUTE
    Libraries\STM32F1xx_HAL_Driver\Src\stm32f1xx_hal_pcd.c 0x00000000   Number         0  stm32f1xx_hal_pcd.o ABSOLUTE
    Libraries\STM32F1xx_HAL_Driver\Src\stm32f1xx_hal_pcd_ex.c 0x00000000   Number         0  stm32f1xx_hal_pcd_ex.o ABSOLUTE
    Libraries\STM32F1xx_HAL_Driver\Src\stm32f1xx_hal_pwr.c 0x00000000   Number         0  stm32f1xx_hal_pwr.o ABSOLUTE
    Libraries\STM32F1xx_HAL_Driver\Src\stm32f1xx_hal_rcc.c 0x00000000   Number         0  stm32f1xx_hal_rcc.o ABSOLUTE
    Libraries\STM32F1xx_HAL_Driver\Src\stm32f1xx_hal_rcc_ex.c 0x00000000   Number         0  stm32f1xx_hal_rcc_ex.o ABSOLUTE
    Libraries\STM32F1xx_HAL_Driver\Src\stm32f1xx_hal_rtc.c 0x00000000   Number         0  stm32f1xx_hal_rtc.o ABSOLUTE
    Libraries\STM32F1xx_HAL_Driver\Src\stm32f1xx_hal_rtc_ex.c 0x00000000   Number         0  stm32f1xx_hal_rtc_ex.o ABSOLUTE
    Libraries\STM32F1xx_HAL_Driver\Src\stm32f1xx_hal_sd.c 0x00000000   Number         0  stm32f1xx_hal_sd.o ABSOLUTE
    Libraries\STM32F1xx_HAL_Driver\Src\stm32f1xx_hal_smartcard.c 0x00000000   Number         0  stm32f1xx_hal_smartcard.o ABSOLUTE
    Libraries\STM32F1xx_HAL_Driver\Src\stm32f1xx_hal_spi.c 0x00000000   Number         0  stm32f1xx_hal_spi.o ABSOLUTE
    Libraries\STM32F1xx_HAL_Driver\Src\stm32f1xx_hal_spi_ex.c 0x00000000   Number         0  stm32f1xx_hal_spi_ex.o ABSOLUTE
    Libraries\STM32F1xx_HAL_Driver\Src\stm32f1xx_hal_sram.c 0x00000000   Number         0  stm32f1xx_hal_sram.o ABSOLUTE
    Libraries\STM32F1xx_HAL_Driver\Src\stm32f1xx_hal_tim.c 0x00000000   Number         0  stm32f1xx_hal_tim.o ABSOLUTE
    Libraries\STM32F1xx_HAL_Driver\Src\stm32f1xx_hal_tim_ex.c 0x00000000   Number         0  stm32f1xx_hal_tim_ex.o ABSOLUTE
    Libraries\STM32F1xx_HAL_Driver\Src\stm32f1xx_hal_uart.c 0x00000000   Number         0  stm32f1xx_hal_uart.o ABSOLUTE
    Libraries\STM32F1xx_HAL_Driver\Src\stm32f1xx_hal_usart.c 0x00000000   Number         0  stm32f1xx_hal_usart.o ABSOLUTE
    Libraries\STM32F1xx_HAL_Driver\Src\stm32f1xx_hal_wwdg.c 0x00000000   Number         0  stm32f1xx_hal_wwdg.o ABSOLUTE
    Libraries\STM32F1xx_HAL_Driver\Src\stm32f1xx_ll_adc.c 0x00000000   Number         0  stm32f1xx_ll_adc.o ABSOLUTE
    Libraries\STM32F1xx_HAL_Driver\Src\stm32f1xx_ll_crc.c 0x00000000   Number         0  stm32f1xx_ll_crc.o ABSOLUTE
    Libraries\STM32F1xx_HAL_Driver\Src\stm32f1xx_ll_dac.c 0x00000000   Number         0  stm32f1xx_ll_dac.o ABSOLUTE
    Libraries\STM32F1xx_HAL_Driver\Src\stm32f1xx_ll_dma.c 0x00000000   Number         0  stm32f1xx_ll_dma.o ABSOLUTE
    Libraries\STM32F1xx_HAL_Driver\Src\stm32f1xx_ll_exti.c 0x00000000   Number         0  stm32f1xx_ll_exti.o ABSOLUTE
    Libraries\STM32F1xx_HAL_Driver\Src\stm32f1xx_ll_fsmc.c 0x00000000   Number         0  stm32f1xx_ll_fsmc.o ABSOLUTE
    Libraries\STM32F1xx_HAL_Driver\Src\stm32f1xx_ll_gpio.c 0x00000000   Number         0  stm32f1xx_ll_gpio.o ABSOLUTE
    Libraries\STM32F1xx_HAL_Driver\Src\stm32f1xx_ll_i2c.c 0x00000000   Number         0  stm32f1xx_ll_i2c.o ABSOLUTE
    Libraries\STM32F1xx_HAL_Driver\Src\stm32f1xx_ll_pwr.c 0x00000000   Number         0  stm32f1xx_ll_pwr.o ABSOLUTE
    Libraries\STM32F1xx_HAL_Driver\Src\stm32f1xx_ll_rcc.c 0x00000000   Number         0  stm32f1xx_ll_rcc.o ABSOLUTE
    Libraries\STM32F1xx_HAL_Driver\Src\stm32f1xx_ll_rtc.c 0x00000000   Number         0  stm32f1xx_ll_rtc.o ABSOLUTE
    Libraries\STM32F1xx_HAL_Driver\Src\stm32f1xx_ll_sdmmc.c 0x00000000   Number         0  stm32f1xx_ll_sdmmc.o ABSOLUTE
    Libraries\STM32F1xx_HAL_Driver\Src\stm32f1xx_ll_spi.c 0x00000000   Number         0  stm32f1xx_ll_spi.o ABSOLUTE
    Libraries\STM32F1xx_HAL_Driver\Src\stm32f1xx_ll_tim.c 0x00000000   Number         0  stm32f1xx_ll_tim.o ABSOLUTE
    Libraries\STM32F1xx_HAL_Driver\Src\stm32f1xx_ll_usart.c 0x00000000   Number         0  stm32f1xx_ll_usart.o ABSOLUTE
    Libraries\STM32F1xx_HAL_Driver\Src\stm32f1xx_ll_usb.c 0x00000000   Number         0  stm32f1xx_ll_usb.o ABSOLUTE
    Libraries\STM32F1xx_HAL_Driver\Src\stm32f1xx_ll_utils.c 0x00000000   Number         0  stm32f1xx_ll_utils.o ABSOLUTE
    Libraries\\CMSIS\\Device\\ST\\STM32F1xx\\Source\\Templates\\system_stm32f1xx.c 0x00000000   Number         0  system_stm32f1xx.o ABSOLUTE
    Libraries\\STM32F1xx_HAL_Driver\\Src\\stm32f1xx_hal.c 0x00000000   Number         0  stm32f1xx_hal.o ABSOLUTE
    Libraries\\STM32F1xx_HAL_Driver\\Src\\stm32f1xx_hal_adc.c 0x00000000   Number         0  stm32f1xx_hal_adc.o ABSOLUTE
    Libraries\\STM32F1xx_HAL_Driver\\Src\\stm32f1xx_hal_adc_ex.c 0x00000000   Number         0  stm32f1xx_hal_adc_ex.o ABSOLUTE
    Libraries\\STM32F1xx_HAL_Driver\\Src\\stm32f1xx_hal_can.c 0x00000000   Number         0  stm32f1xx_hal_can.o ABSOLUTE
    Libraries\\STM32F1xx_HAL_Driver\\Src\\stm32f1xx_hal_cortex.c 0x00000000   Number         0  stm32f1xx_hal_cortex.o ABSOLUTE
    Libraries\\STM32F1xx_HAL_Driver\\Src\\stm32f1xx_hal_crc.c 0x00000000   Number         0  stm32f1xx_hal_crc.o ABSOLUTE
    Libraries\\STM32F1xx_HAL_Driver\\Src\\stm32f1xx_hal_dac.c 0x00000000   Number         0  stm32f1xx_hal_dac.o ABSOLUTE
    Libraries\\STM32F1xx_HAL_Driver\\Src\\stm32f1xx_hal_dac_ex.c 0x00000000   Number         0  stm32f1xx_hal_dac_ex.o ABSOLUTE
    Libraries\\STM32F1xx_HAL_Driver\\Src\\stm32f1xx_hal_dma.c 0x00000000   Number         0  stm32f1xx_hal_dma.o ABSOLUTE
    Libraries\\STM32F1xx_HAL_Driver\\Src\\stm32f1xx_hal_flash.c 0x00000000   Number         0  stm32f1xx_hal_flash.o ABSOLUTE
    Libraries\\STM32F1xx_HAL_Driver\\Src\\stm32f1xx_hal_flash_ex.c 0x00000000   Number         0  stm32f1xx_hal_flash_ex.o ABSOLUTE
    Libraries\\STM32F1xx_HAL_Driver\\Src\\stm32f1xx_hal_gpio.c 0x00000000   Number         0  stm32f1xx_hal_gpio.o ABSOLUTE
    Libraries\\STM32F1xx_HAL_Driver\\Src\\stm32f1xx_hal_gpio_ex.c 0x00000000   Number         0  stm32f1xx_hal_gpio_ex.o ABSOLUTE
    Libraries\\STM32F1xx_HAL_Driver\\Src\\stm32f1xx_hal_i2c.c 0x00000000   Number         0  stm32f1xx_hal_i2c.o ABSOLUTE
    Libraries\\STM32F1xx_HAL_Driver\\Src\\stm32f1xx_hal_i2s.c 0x00000000   Number         0  stm32f1xx_hal_i2s.o ABSOLUTE
    Libraries\\STM32F1xx_HAL_Driver\\Src\\stm32f1xx_hal_irda.c 0x00000000   Number         0  stm32f1xx_hal_irda.o ABSOLUTE
    Libraries\\STM32F1xx_HAL_Driver\\Src\\stm32f1xx_hal_iwdg.c 0x00000000   Number         0  stm32f1xx_hal_iwdg.o ABSOLUTE
    Libraries\\STM32F1xx_HAL_Driver\\Src\\stm32f1xx_hal_mmc.c 0x00000000   Number         0  stm32f1xx_hal_mmc.o ABSOLUTE
    Libraries\\STM32F1xx_HAL_Driver\\Src\\stm32f1xx_hal_nand.c 0x00000000   Number         0  stm32f1xx_hal_nand.o ABSOLUTE
    Libraries\\STM32F1xx_HAL_Driver\\Src\\stm32f1xx_hal_nor.c 0x00000000   Number         0  stm32f1xx_hal_nor.o ABSOLUTE
    Libraries\\STM32F1xx_HAL_Driver\\Src\\stm32f1xx_hal_pccard.c 0x00000000   Number         0  stm32f1xx_hal_pccard.o ABSOLUTE
    Libraries\\STM32F1xx_HAL_Driver\\Src\\stm32f1xx_hal_pcd.c 0x00000000   Number         0  stm32f1xx_hal_pcd.o ABSOLUTE
    Libraries\\STM32F1xx_HAL_Driver\\Src\\stm32f1xx_hal_pcd_ex.c 0x00000000   Number         0  stm32f1xx_hal_pcd_ex.o ABSOLUTE
    Libraries\\STM32F1xx_HAL_Driver\\Src\\stm32f1xx_hal_pwr.c 0x00000000   Number         0  stm32f1xx_hal_pwr.o ABSOLUTE
    Libraries\\STM32F1xx_HAL_Driver\\Src\\stm32f1xx_hal_rcc.c 0x00000000   Number         0  stm32f1xx_hal_rcc.o ABSOLUTE
    Libraries\\STM32F1xx_HAL_Driver\\Src\\stm32f1xx_hal_rcc_ex.c 0x00000000   Number         0  stm32f1xx_hal_rcc_ex.o ABSOLUTE
    Libraries\\STM32F1xx_HAL_Driver\\Src\\stm32f1xx_hal_rtc.c 0x00000000   Number         0  stm32f1xx_hal_rtc.o ABSOLUTE
    Libraries\\STM32F1xx_HAL_Driver\\Src\\stm32f1xx_hal_rtc_ex.c 0x00000000   Number         0  stm32f1xx_hal_rtc_ex.o ABSOLUTE
    Libraries\\STM32F1xx_HAL_Driver\\Src\\stm32f1xx_hal_sd.c 0x00000000   Number         0  stm32f1xx_hal_sd.o ABSOLUTE
    Libraries\\STM32F1xx_HAL_Driver\\Src\\stm32f1xx_hal_smartcard.c 0x00000000   Number         0  stm32f1xx_hal_smartcard.o ABSOLUTE
    Libraries\\STM32F1xx_HAL_Driver\\Src\\stm32f1xx_hal_spi.c 0x00000000   Number         0  stm32f1xx_hal_spi.o ABSOLUTE
    Libraries\\STM32F1xx_HAL_Driver\\Src\\stm32f1xx_hal_spi_ex.c 0x00000000   Number         0  stm32f1xx_hal_spi_ex.o ABSOLUTE
    Libraries\\STM32F1xx_HAL_Driver\\Src\\stm32f1xx_hal_sram.c 0x00000000   Number         0  stm32f1xx_hal_sram.o ABSOLUTE
    Libraries\\STM32F1xx_HAL_Driver\\Src\\stm32f1xx_hal_tim.c 0x00000000   Number         0  stm32f1xx_hal_tim.o ABSOLUTE
    Libraries\\STM32F1xx_HAL_Driver\\Src\\stm32f1xx_hal_tim_ex.c 0x00000000   Number         0  stm32f1xx_hal_tim_ex.o ABSOLUTE
    Libraries\\STM32F1xx_HAL_Driver\\Src\\stm32f1xx_hal_uart.c 0x00000000   Number         0  stm32f1xx_hal_uart.o ABSOLUTE
    Libraries\\STM32F1xx_HAL_Driver\\Src\\stm32f1xx_hal_usart.c 0x00000000   Number         0  stm32f1xx_hal_usart.o ABSOLUTE
    Libraries\\STM32F1xx_HAL_Driver\\Src\\stm32f1xx_hal_wwdg.c 0x00000000   Number         0  stm32f1xx_hal_wwdg.o ABSOLUTE
    Libraries\\STM32F1xx_HAL_Driver\\Src\\stm32f1xx_ll_fsmc.c 0x00000000   Number         0  stm32f1xx_ll_fsmc.o ABSOLUTE
    Libraries\\STM32F1xx_HAL_Driver\\Src\\stm32f1xx_ll_sdmmc.c 0x00000000   Number         0  stm32f1xx_ll_sdmmc.o ABSOLUTE
    Libraries\\STM32F1xx_HAL_Driver\\Src\\stm32f1xx_ll_usb.c 0x00000000   Number         0  stm32f1xx_ll_usb.o ABSOLUTE
    Libraries\\STM32F1xx_HAL_Driver\\Src\\stm32f1xx_ll_utils.c 0x00000000   Number         0  stm32f1xx_ll_utils.o ABSOLUTE
    applications\24cxx.c                     0x00000000   Number         0  24cxx.o ABSOLUTE
    applications\24l01.c                     0x00000000   Number         0  24l01.o ABSOLUTE
    applications\\24cxx.c                    0x00000000   Number         0  24cxx.o ABSOLUTE
    applications\\24l01.c                    0x00000000   Number         0  24l01.o ABSOLUTE
    applications\\app.c                      0x00000000   Number         0  app.o ABSOLUTE
    applications\\beep.c                     0x00000000   Number         0  beep.o ABSOLUTE
    applications\\bsp_adc.c                  0x00000000   Number         0  bsp_adc.o ABSOLUTE
    applications\\bsp_ds18b20.c              0x00000000   Number         0  bsp_ds18b20.o ABSOLUTE
    applications\\bsp_gsm.c                  0x00000000   Number         0  bsp_gsm.o ABSOLUTE
    applications\\bsp_key.c                  0x00000000   Number         0  bsp_key.o ABSOLUTE
    applications\\bsp_led.c                  0x00000000   Number         0  bsp_led.o ABSOLUTE
    applications\\bsp_rsd.c                  0x00000000   Number         0  bsp_rsd.o ABSOLUTE
    applications\\bsp_timer.c                0x00000000   Number         0  bsp_timer.o ABSOLUTE
    applications\\bsp_wb.c                   0x00000000   Number         0  bsp_wb.o ABSOLUTE
    applications\\ctiic.c                    0x00000000   Number         0  ctiic.o ABSOLUTE
    applications\\delay.c                    0x00000000   Number         0  delay.o ABSOLUTE
    applications\\dht11.c                    0x00000000   Number         0  dht11.o ABSOLUTE
    applications\\dm9000.c                   0x00000000   Number         0  dm9000.o ABSOLUTE
    applications\\ft5206.c                   0x00000000   Number         0  ft5206.o ABSOLUTE
    applications\\gt9147.c                   0x00000000   Number         0  gt9147.o ABSOLUTE
    applications\\lcd.c                      0x00000000   Number         0  lcd.o ABSOLUTE
    applications\\mailbox.c                  0x00000000   Number         0  mailbox.o ABSOLUTE
    applications\\main.c                     0x00000000   Number         0  main.o ABSOLUTE
    applications\\myiic.c                    0x00000000   Number         0  myiic.o ABSOLUTE
    applications\\ott2001a.c                 0x00000000   Number         0  ott2001a.o ABSOLUTE
    applications\\public.c                   0x00000000   Number         0  public.o ABSOLUTE
    applications\\remote.c                   0x00000000   Number         0  remote.o ABSOLUTE
    applications\\rtc.c                      0x00000000   Number         0  rtc.o ABSOLUTE
    applications\\spi.c                      0x00000000   Number         0  spi.o ABSOLUTE
    applications\\sram.c                     0x00000000   Number         0  sram.o ABSOLUTE
    applications\\sys.c                      0x00000000   Number         0  sys.o ABSOLUTE
    applications\\touch.c                    0x00000000   Number         0  touch.o ABSOLUTE
    applications\\usart.c                    0x00000000   Number         0  usart.o ABSOLUTE
    applications\app.c                       0x00000000   Number         0  app.o ABSOLUTE
    applications\beep.c                      0x00000000   Number         0  beep.o ABSOLUTE
    applications\bsp_adc.c                   0x00000000   Number         0  bsp_adc.o ABSOLUTE
    applications\bsp_ds18b20.c               0x00000000   Number         0  bsp_ds18b20.o ABSOLUTE
    applications\bsp_gsm.c                   0x00000000   Number         0  bsp_gsm.o ABSOLUTE
    applications\bsp_key.c                   0x00000000   Number         0  bsp_key.o ABSOLUTE
    applications\bsp_led.c                   0x00000000   Number         0  bsp_led.o ABSOLUTE
    applications\bsp_rsd.c                   0x00000000   Number         0  bsp_rsd.o ABSOLUTE
    applications\bsp_timer.c                 0x00000000   Number         0  bsp_timer.o ABSOLUTE
    applications\bsp_wb.c                    0x00000000   Number         0  bsp_wb.o ABSOLUTE
    applications\ctiic.c                     0x00000000   Number         0  ctiic.o ABSOLUTE
    applications\delay.c                     0x00000000   Number         0  delay.o ABSOLUTE
    applications\dht11.c                     0x00000000   Number         0  dht11.o ABSOLUTE
    applications\dm9000.c                    0x00000000   Number         0  dm9000.o ABSOLUTE
    applications\font.c                      0x00000000   Number         0  font.o ABSOLUTE
    applications\ft5206.c                    0x00000000   Number         0  ft5206.o ABSOLUTE
    applications\gt9147.c                    0x00000000   Number         0  gt9147.o ABSOLUTE
    applications\lcd.c                       0x00000000   Number         0  lcd.o ABSOLUTE
    applications\mailbox.c                   0x00000000   Number         0  mailbox.o ABSOLUTE
    applications\main.c                      0x00000000   Number         0  main.o ABSOLUTE
    applications\myiic.c                     0x00000000   Number         0  myiic.o ABSOLUTE
    applications\ott2001a.c                  0x00000000   Number         0  ott2001a.o ABSOLUTE
    applications\pic.c                       0x00000000   Number         0  pic.o ABSOLUTE
    applications\public.c                    0x00000000   Number         0  public.o ABSOLUTE
    applications\remote.c                    0x00000000   Number         0  remote.o ABSOLUTE
    applications\rtc.c                       0x00000000   Number         0  rtc.o ABSOLUTE
    applications\spi.c                       0x00000000   Number         0  spi.o ABSOLUTE
    applications\sram.c                      0x00000000   Number         0  sram.o ABSOLUTE
    applications\sys.c                       0x00000000   Number         0  sys.o ABSOLUTE
    applications\touch.c                     0x00000000   Number         0  touch.o ABSOLUTE
    applications\usart.c                     0x00000000   Number         0  usart.o ABSOLUTE
    cdcmple.s                                0x00000000   Number         0  cdcmple.o ABSOLUTE
    cdrcmple.s                               0x00000000   Number         0  cdrcmple.o ABSOLUTE
    cfcmple.s                                0x00000000   Number         0  cfcmple.o ABSOLUTE
    dc.s                                     0x00000000   Number         0  dc.o ABSOLUTE
    drivers\\board.c                         0x00000000   Number         0  board.o ABSOLUTE
    drivers\\drv_gpio.c                      0x00000000   Number         0  drv_gpio.o ABSOLUTE
    drivers\\drv_usart.c                     0x00000000   Number         0  drv_usart.o ABSOLUTE
    drivers\\stm32f1xx_it.c                  0x00000000   Number         0  stm32f1xx_it.o ABSOLUTE
    drivers\board.c                          0x00000000   Number         0  board.o ABSOLUTE
    drivers\drv_gpio.c                       0x00000000   Number         0  drv_gpio.o ABSOLUTE
    drivers\drv_usart.c                      0x00000000   Number         0  drv_usart.o ABSOLUTE
    drivers\stm32f1xx_it.c                   0x00000000   Number         0  stm32f1xx_it.o ABSOLUTE
    handlers.s                               0x00000000   Number         0  handlers.o ABSOLUTE
    init.s                                   0x00000000   Number         0  init.o ABSOLUTE
    rt-thread\\components\\net\\lwip-1.4.1\\lwip_app\\lwip_comm\\lwip_comm.c 0x00000000   Number         0  lwip_comm.o ABSOLUTE
    rt-thread\\components\\net\\lwip-1.4.1\\lwip_app\\web_server_demo\\httpd.c 0x00000000   Number         0  httpd.o ABSOLUTE
    rt-thread\\components\\net\\lwip-1.4.1\\lwip_app\\web_server_demo\\httpd_cgi_ssi.c 0x00000000   Number         0  httpd_cgi_ssi.o ABSOLUTE
    rt-thread\\components\\net\\lwip-1.4.1\\src\\netif\\ethernetif.c 0x00000000   Number         0  ethernetif.o ABSOLUTE
    rt-thread\components\drivers\misc\pin.c  0x00000000   Number         0  pin.o ABSOLUTE
    rt-thread\components\drivers\serial\serial.c 0x00000000   Number         0  serial.o ABSOLUTE
    rt-thread\components\drivers\src\completion.c 0x00000000   Number         0  completion.o ABSOLUTE
    rt-thread\components\drivers\src\dataqueue.c 0x00000000   Number         0  dataqueue.o ABSOLUTE
    rt-thread\components\drivers\src\pipe.c  0x00000000   Number         0  pipe.o ABSOLUTE
    rt-thread\components\drivers\src\ringblk_buf.c 0x00000000   Number         0  ringblk_buf.o ABSOLUTE
    rt-thread\components\drivers\src\ringbuffer.c 0x00000000   Number         0  ringbuffer.o ABSOLUTE
    rt-thread\components\drivers\src\waitqueue.c 0x00000000   Number         0  waitqueue.o ABSOLUTE
    rt-thread\components\drivers\src\workqueue.c 0x00000000   Number         0  workqueue.o ABSOLUTE
    rt-thread\components\finsh\cmd.c         0x00000000   Number         0  cmd.o ABSOLUTE
    rt-thread\components\finsh\finsh_compiler.c 0x00000000   Number         0  finsh_compiler.o ABSOLUTE
    rt-thread\components\finsh\finsh_error.c 0x00000000   Number         0  finsh_error.o ABSOLUTE
    rt-thread\components\finsh\finsh_heap.c  0x00000000   Number         0  finsh_heap.o ABSOLUTE
    rt-thread\components\finsh\finsh_init.c  0x00000000   Number         0  finsh_init.o ABSOLUTE
    rt-thread\components\finsh\finsh_node.c  0x00000000   Number         0  finsh_node.o ABSOLUTE
    rt-thread\components\finsh\finsh_ops.c   0x00000000   Number         0  finsh_ops.o ABSOLUTE
    rt-thread\components\finsh\finsh_parser.c 0x00000000   Number         0  finsh_parser.o ABSOLUTE
    rt-thread\components\finsh\finsh_token.c 0x00000000   Number         0  finsh_token.o ABSOLUTE
    rt-thread\components\finsh\finsh_var.c   0x00000000   Number         0  finsh_var.o ABSOLUTE
    rt-thread\components\finsh\finsh_vm.c    0x00000000   Number         0  finsh_vm.o ABSOLUTE
    rt-thread\components\finsh\msh.c         0x00000000   Number         0  msh.o ABSOLUTE
    rt-thread\components\finsh\msh_cmd.c     0x00000000   Number         0  msh_cmd.o ABSOLUTE
    rt-thread\components\finsh\msh_file.c    0x00000000   Number         0  msh_file.o ABSOLUTE
    rt-thread\components\finsh\shell.c       0x00000000   Number         0  shell.o ABSOLUTE
    rt-thread\components\finsh\symbol.c      0x00000000   Number         0  symbol.o ABSOLUTE
    rt-thread\components\libc\compilers\armlibc\libc.c 0x00000000   Number         0  libc.o ABSOLUTE
    rt-thread\components\libc\compilers\armlibc\mem_std.c 0x00000000   Number         0  mem_std.o ABSOLUTE
    rt-thread\components\libc\compilers\armlibc\stubs.c 0x00000000   Number         0  stubs.o ABSOLUTE
    rt-thread\components\libc\compilers\armlibc\time.c 0x00000000   Number         0  time.o ABSOLUTE
    rt-thread\components\libc\compilers\common\gmtime_r.c 0x00000000   Number         0  gmtime_r.o ABSOLUTE
    rt-thread\components\net\lwip-1.4.1\lwip_app\lwip_comm\lwip_comm.c 0x00000000   Number         0  lwip_comm.o ABSOLUTE
    rt-thread\components\net\lwip-1.4.1\lwip_app\web_server_demo\fs.c 0x00000000   Number         0  fs.o ABSOLUTE
    rt-thread\components\net\lwip-1.4.1\lwip_app\web_server_demo\httpd.c 0x00000000   Number         0  httpd.o ABSOLUTE
    rt-thread\components\net\lwip-1.4.1\lwip_app\web_server_demo\httpd_cgi_ssi.c 0x00000000   Number         0  httpd_cgi_ssi.o ABSOLUTE
    rt-thread\components\net\lwip-1.4.1\src\api\api_lib.c 0x00000000   Number         0  api_lib.o ABSOLUTE
    rt-thread\components\net\lwip-1.4.1\src\api\api_msg.c 0x00000000   Number         0  api_msg.o ABSOLUTE
    rt-thread\components\net\lwip-1.4.1\src\api\err.c 0x00000000   Number         0  err.o ABSOLUTE
    rt-thread\components\net\lwip-1.4.1\src\api\netbuf.c 0x00000000   Number         0  netbuf.o ABSOLUTE
    rt-thread\components\net\lwip-1.4.1\src\api\netdb.c 0x00000000   Number         0  netdb.o ABSOLUTE
    rt-thread\components\net\lwip-1.4.1\src\api\netifapi.c 0x00000000   Number         0  netifapi.o ABSOLUTE
    rt-thread\components\net\lwip-1.4.1\src\api\sockets.c 0x00000000   Number         0  sockets.o ABSOLUTE
    rt-thread\components\net\lwip-1.4.1\src\api\tcpip.c 0x00000000   Number         0  tcpip.o ABSOLUTE
    rt-thread\components\net\lwip-1.4.1\src\arch\sys_arch.c 0x00000000   Number         0  sys_arch.o ABSOLUTE
    rt-thread\components\net\lwip-1.4.1\src\core\def.c 0x00000000   Number         0  def.o ABSOLUTE
    rt-thread\components\net\lwip-1.4.1\src\core\dhcp.c 0x00000000   Number         0  dhcp.o ABSOLUTE
    rt-thread\components\net\lwip-1.4.1\src\core\dns.c 0x00000000   Number         0  dns.o ABSOLUTE
    rt-thread\components\net\lwip-1.4.1\src\core\init.c 0x00000000   Number         0  init.o ABSOLUTE
    rt-thread\components\net\lwip-1.4.1\src\core\ipv4\autoip.c 0x00000000   Number         0  autoip.o ABSOLUTE
    rt-thread\components\net\lwip-1.4.1\src\core\ipv4\icmp.c 0x00000000   Number         0  icmp.o ABSOLUTE
    rt-thread\components\net\lwip-1.4.1\src\core\ipv4\igmp.c 0x00000000   Number         0  igmp.o ABSOLUTE
    rt-thread\components\net\lwip-1.4.1\src\core\ipv4\inet.c 0x00000000   Number         0  inet.o ABSOLUTE
    rt-thread\components\net\lwip-1.4.1\src\core\ipv4\inet_chksum.c 0x00000000   Number         0  inet_chksum.o ABSOLUTE
    rt-thread\components\net\lwip-1.4.1\src\core\ipv4\ip.c 0x00000000   Number         0  ip.o ABSOLUTE
    rt-thread\components\net\lwip-1.4.1\src\core\ipv4\ip_addr.c 0x00000000   Number         0  ip_addr.o ABSOLUTE
    rt-thread\components\net\lwip-1.4.1\src\core\ipv4\ip_frag.c 0x00000000   Number         0  ip_frag.o ABSOLUTE
    rt-thread\components\net\lwip-1.4.1\src\core\mem.c 0x00000000   Number         0  mem_1.o ABSOLUTE
    rt-thread\components\net\lwip-1.4.1\src\core\memp.c 0x00000000   Number         0  memp.o ABSOLUTE
    rt-thread\components\net\lwip-1.4.1\src\core\netif.c 0x00000000   Number         0  netif.o ABSOLUTE
    rt-thread\components\net\lwip-1.4.1\src\core\pbuf.c 0x00000000   Number         0  pbuf.o ABSOLUTE
    rt-thread\components\net\lwip-1.4.1\src\core\raw.c 0x00000000   Number         0  raw.o ABSOLUTE
    rt-thread\components\net\lwip-1.4.1\src\core\stats.c 0x00000000   Number         0  stats.o ABSOLUTE
    rt-thread\components\net\lwip-1.4.1\src\core\sys.c 0x00000000   Number         0  core_sys.o ABSOLUTE
    rt-thread\components\net\lwip-1.4.1\src\core\tcp.c 0x00000000   Number         0  tcp.o ABSOLUTE
    rt-thread\components\net\lwip-1.4.1\src\core\tcp_in.c 0x00000000   Number         0  tcp_in.o ABSOLUTE
    rt-thread\components\net\lwip-1.4.1\src\core\tcp_out.c 0x00000000   Number         0  tcp_out.o ABSOLUTE
    rt-thread\components\net\lwip-1.4.1\src\core\timers.c 0x00000000   Number         0  timers.o ABSOLUTE
    rt-thread\components\net\lwip-1.4.1\src\core\udp.c 0x00000000   Number         0  udp.o ABSOLUTE
    rt-thread\components\net\lwip-1.4.1\src\netif\etharp.c 0x00000000   Number         0  etharp.o ABSOLUTE
    rt-thread\components\net\lwip-1.4.1\src\netif\ethernetif.c 0x00000000   Number         0  ethernetif.o ABSOLUTE
    rt-thread\components\net\lwip-1.4.1\src\netif\slipif.c 0x00000000   Number         0  slipif.o ABSOLUTE
    rt-thread\libcpu\arm\common\backtrace.c  0x00000000   Number         0  backtrace.o ABSOLUTE
    rt-thread\libcpu\arm\common\div0.c       0x00000000   Number         0  div0.o ABSOLUTE
    rt-thread\libcpu\arm\common\showmem.c    0x00000000   Number         0  showmem.o ABSOLUTE
    rt-thread\libcpu\arm\cortex-m3\context_rvds.S 0x00000000   Number         0  context_rvds.o ABSOLUTE
    rt-thread\libcpu\arm\cortex-m3\cpuport.c 0x00000000   Number         0  cpuport.o ABSOLUTE
    rt-thread\src\clock.c                    0x00000000   Number         0  clock.o ABSOLUTE
    rt-thread\src\components.c               0x00000000   Number         0  components.o ABSOLUTE
    rt-thread\src\device.c                   0x00000000   Number         0  device.o ABSOLUTE
    rt-thread\src\idle.c                     0x00000000   Number         0  idle.o ABSOLUTE
    rt-thread\src\ipc.c                      0x00000000   Number         0  ipc.o ABSOLUTE
    rt-thread\src\irq.c                      0x00000000   Number         0  irq.o ABSOLUTE
    rt-thread\src\kservice.c                 0x00000000   Number         0  kservice.o ABSOLUTE
    rt-thread\src\mem.c                      0x00000000   Number         0  mem.o ABSOLUTE
    rt-thread\src\memheap.c                  0x00000000   Number         0  memheap.o ABSOLUTE
    rt-thread\src\mempool.c                  0x00000000   Number         0  mempool.o ABSOLUTE
    rt-thread\src\object.c                   0x00000000   Number         0  object.o ABSOLUTE
    rt-thread\src\scheduler.c                0x00000000   Number         0  scheduler.o ABSOLUTE
    rt-thread\src\signal.c                   0x00000000   Number         0  signal.o ABSOLUTE
    rt-thread\src\thread.c                   0x00000000   Number         0  thread.o ABSOLUTE
    rt-thread\src\timer.c                    0x00000000   Number         0  timer.o ABSOLUTE
    RESET                                    0x08000000   Section      304  startup_stm32f103xe.o(RESET)
    .ARM.Collect$$$$00000000                 0x08000130   Section        0  entry.o(.ARM.Collect$$$$00000000)
    .ARM.Collect$$$$00000001                 0x08000130   Section        4  entry2.o(.ARM.Collect$$$$00000001)
    .ARM.Collect$$$$00000004                 0x08000134   Section        4  entry5.o(.ARM.Collect$$$$00000004)
    .ARM.Collect$$$$00000008                 0x08000138   Section        0  entry7b.o(.ARM.Collect$$$$00000008)
    .ARM.Collect$$$$0000000A                 0x08000138   Section        0  entry8b.o(.ARM.Collect$$$$0000000A)
    .ARM.Collect$$$$0000000B                 0x08000138   Section        8  entry9a.o(.ARM.Collect$$$$0000000B)
    .ARM.Collect$$$$0000000D                 0x08000140   Section        0  entry10a.o(.ARM.Collect$$$$0000000D)
    .ARM.Collect$$$$0000000F                 0x08000140   Section        0  entry11a.o(.ARM.Collect$$$$0000000F)
    .ARM.Collect$$$$00002712                 0x08000140   Section        4  entry2.o(.ARM.Collect$$$$00002712)
    __lit__00000000                          0x08000140   Data           4  entry2.o(.ARM.Collect$$$$00002712)
    .text                                    0x08000144   Section        0  clock.o(.text)
    .text                                    0x080001b0   Section        0  components.o(.text)
    rti_start                                0x080001b1   Thumb Code     4  components.o(.text)
    rti_board_start                          0x080001b5   Thumb Code     4  components.o(.text)
    rti_board_end                            0x080001b9   Thumb Code     4  components.o(.text)
    rti_end                                  0x080001bd   Thumb Code     4  components.o(.text)
    .text                                    0x0800028c   Section        0  device.o(.text)
    .text                                    0x080007d4   Section        0  idle.o(.text)
    rt_thread_idle_entry                     0x080008ff   Thumb Code    36  idle.o(.text)
    _has_defunct_thread                      0x0800094d   Thumb Code    16  idle.o(.text)
    .text                                    0x080009a8   Section        0  ipc.o(.text)
    rt_list_insert_before                    0x080009a9   Thumb Code    14  ipc.o(.text)
    rt_ipc_list_suspend                      0x080009b7   Thumb Code   108  ipc.o(.text)
    rt_ipc_list_resume_all                   0x08000a23   Thumb Code    50  ipc.o(.text)
    rt_list_init                             0x0800256d   Thumb Code     6  ipc.o(.text)
    rt_list_isempty                          0x08002573   Thumb Code    16  ipc.o(.text)
    rt_ipc_object_init                       0x08002583   Thumb Code    16  ipc.o(.text)
    rt_ipc_list_resume                       0x08002593   Thumb Code    24  ipc.o(.text)
    .text                                    0x080025c4   Section        0  irq.o(.text)
    .text                                    0x08002640   Section        0  kservice.o(.text)
    print_number                             0x08002905   Thumb Code   414  kservice.o(.text)
    skip_atoi                                0x08002aa3   Thumb Code    38  kservice.o(.text)
    .text                                    0x08003100   Section        0  mem.o(.text)
    plug_holes                               0x0800310d   Thumb Code   160  mem.o(.text)
    .text                                    0x080039f4   Section        0  mempool.o(.text)
    rt_list_init                             0x08003dc5   Thumb Code     6  mempool.o(.text)
    rt_list_isempty                          0x08003dcb   Thumb Code   282  mempool.o(.text)
    .text                                    0x08003ee4   Section        0  object.o(.text)
    rt_list_insert_after                     0x08003ee5   Thumb Code    14  object.o(.text)
    rt_list_remove                           0x08003ef3   Thumb Code    18  object.o(.text)
    .text                                    0x08004258   Section        0  scheduler.o(.text)
    _rt_scheduler_stack_check                0x0800425f   Thumb Code    90  scheduler.o(.text)
    rt_list_init                             0x080044c7   Thumb Code     6  scheduler.o(.text)
    .text                                    0x08004564   Section        0  signal.o(.text)
    _signal_default_handler                  0x08004565   Thumb Code     2  signal.o(.text)
    _signal_entry                            0x08004603   Thumb Code    50  signal.o(.text)
    _signal_deliver                          0x08004635   Thumb Code   162  signal.o(.text)
    .text                                    0x08004b2c   Section        0  thread.o(.text)
    rt_list_insert_after                     0x08004b2d   Thumb Code    14  thread.o(.text)
    rt_list_remove                           0x08004b3b   Thumb Code    18  thread.o(.text)
    _rt_thread_init                          0x08004c07   Thumb Code   172  thread.o(.text)
    .text                                    0x08005324   Section        0  timer.o(.text)
    rt_list_insert_after                     0x08005325   Thumb Code    14  timer.o(.text)
    _rt_timer_init                           0x0800533f   Thumb Code    66  timer.o(.text)
    rt_timer_list_next_timeout               0x08005381   Thumb Code    28  timer.o(.text)
    _rt_timer_remove                         0x0800539d   Thumb Code    46  timer.o(.text)
    rt_thread_timer_entry                    0x0800597d   Thumb Code    62  timer.o(.text)
    rt_list_init                             0x08005a0d   Thumb Code     6  timer.o(.text)
    rt_list_isempty                          0x08005a13   Thumb Code    16  timer.o(.text)
    .text                                    0x08005a48   Section        0  cpuport.o(.text)
    usage_fault_track                        0x08005a95   Thumb Code   122  cpuport.o(.text)
    bus_fault_track                          0x08005b0f   Thumb Code   144  cpuport.o(.text)
    mem_manage_fault_track                   0x08005b9f   Thumb Code   126  cpuport.o(.text)
    hard_fault_track                         0x08005c1d   Thumb Code    86  cpuport.o(.text)
    .text                                    0x08006028   Section      244  context_rvds.o(.text)
    .text                                    0x0800611c   Section        0  24cxx.o(.text)
    .text                                    0x08006298   Section        0  24l01.o(.text)
    .text                                    0x08006610   Section        0  beep.o(.text)
    .text                                    0x080066b4   Section        0  bsp_adc.o(.text)
    .text                                    0x08006a68   Section        0  bsp_ds18b20.o(.text)
    .text                                    0x08006e50   Section        0  bsp_gsm.o(.text)
    .text                                    0x08007ad4   Section        0  bsp_led.o(.text)
    .text                                    0x08007e68   Section        0  bsp_rsd.o(.text)
    .text                                    0x08007eb8   Section        0  bsp_timer.o(.text)
    .text                                    0x08007fa0   Section        0  bsp_wb.o(.text)
    .text                                    0x08007ff8   Section        0  ctiic.o(.text)
    .text                                    0x080082a8   Section        0  delay.o(.text)
    .text                                    0x08008378   Section        0  dht11.o(.text)
    .text                                    0x08008520   Section        0  dm9000.o(.text)
    .text                                    0x08008d8c   Section        0  ft5206.o(.text)
    .text                                    0x080090c4   Section        0  gt9147.o(.text)
    .text                                    0x08009510   Section        0  lcd.o(.text)
    .text                                    0x0800cd7c   Section        0  main.o(.text)
    NRF2401_thread                           0x0800cd7d   Thumb Code   448  main.o(.text)
    GSM_send_thread                          0x0800cf3d   Thumb Code    54  main.o(.text)
    GSM_read_thread                          0x0800cf73   Thumb Code  1486  main.o(.text)
    GSM_thread                               0x0800d541   Thumb Code    34  main.o(.text)
    IRDA_thread                              0x0800d563   Thumb Code   214  main.o(.text)
    security_thread                          0x0800d639   Thumb Code   252  main.o(.text)
    touch_thread                             0x0800d735   Thumb Code   794  main.o(.text)
    Corridor_Light_thread                    0x0800da4f   Thumb Code   188  main.o(.text)
    Get_Sensor_Status_thread                 0x0800db0b   Thumb Code   386  main.o(.text)
    .text                                    0x0800e208   Section        0  myiic.o(.text)
    .text                                    0x0800e484   Section        0  ott2001a.o(.text)
    .text                                    0x0800e7f0   Section        0  public.o(.text)
    .text                                    0x0800e8f8   Section        0  remote.o(.text)
    .text                                    0x0800ebe8   Section        0  rtc.o(.text)
    .text                                    0x08010a64   Section        0  spi.o(.text)
    .text                                    0x08010b7c   Section        0  touch.o(.text)
    .text                                    0x08011b30   Section        0  usart.o(.text)
    .text                                    0x08011da4   Section        0  board.o(.text)
    .text                                    0x0801202c   Section        0  stm32f1xx_it.o(.text)
    .text                                    0x0801203c   Section        0  drv_gpio.o(.text)
    get_st_gpio                              0x0801203d   Thumb Code    72  drv_gpio.o(.text)
    drv_clock_enable                         0x08012085   Thumb Code   260  drv_gpio.o(.text)
    get_pin                                  0x08012189   Thumb Code    16  drv_gpio.o(.text)
    pin_irq_hdr                              0x080125b9   Thumb Code    76  drv_gpio.o(.text)
    .text                                    0x08012620   Section        0  drv_usart.o(.text)
    stm32_configure                          0x08012621   Thumb Code   186  drv_usart.o(.text)
    stm32_control                            0x080126db   Thumb Code   116  drv_usart.o(.text)
    stm32_putc                               0x0801274f   Thumb Code    50  drv_usart.o(.text)
    stm32_getc                               0x08012781   Thumb Code    42  drv_usart.o(.text)
    uart_isr                                 0x080127ab   Thumb Code    56  drv_usart.o(.text)
    .text                                    0x08012918   Section        0  system_stm32f1xx.o(.text)
    .text                                    0x08012a0c   Section        0  stm32f1xx_hal_adc.o(.text)
    .text                                    0x08013798   Section        0  stm32f1xx_hal_adc_ex.o(.text)
    .text                                    0x08014168   Section        0  stm32f1xx_hal_gpio.o(.text)
    .text                                    0x08014650   Section        0  stm32f1xx_hal_dma.o(.text)
    DMA_SetConfig                            0x08014759   Thumb Code    44  stm32f1xx_hal_dma.o(.text)
    .text                                    0x08015534   Section        0  stm32f1xx_hal_cortex.o(.text)
    NVIC_SetPriority                         0x08015535   Thumb Code    32  stm32f1xx_hal_cortex.o(.text)
    NVIC_GetPriorityGrouping                 0x080157d7   Thumb Code    12  stm32f1xx_hal_cortex.o(.text)
    .text                                    0x080157f8   Section        0  stm32f1xx_hal_pwr.o(.text)
    PWR_OverloadWfe                          0x080157f9   Thumb Code     6  stm32f1xx_hal_pwr.o(.text)
    __tagsym$$noinline                       0x080157f9   Number         0  stm32f1xx_hal_pwr.o(.text)
    .text                                    0x08015a00   Section        0  stm32f1xx_hal_rcc.o(.text)
    RCC_Delay                                0x08015afd   Thumb Code    36  stm32f1xx_hal_rcc.o(.text)
    .text                                    0x0801638c   Section        0  stm32f1xx_hal_rcc_ex.o(.text)
    .text                                    0x08016640   Section        0  stm32f1xx_hal_rtc.o(.text)
    RTC_ExitInitMode                         0x08016641   Thumb Code    58  stm32f1xx_hal_rtc.o(.text)
    RTC_EnterInitMode                        0x0801667b   Thumb Code    58  stm32f1xx_hal_rtc.o(.text)
    RTC_WriteAlarmCounter                    0x08016847   Thumb Code    46  stm32f1xx_hal_rtc.o(.text)
    RTC_ReadAlarmCounter                     0x08016875   Thumb Code    24  stm32f1xx_hal_rtc.o(.text)
    RTC_WriteTimeCounter                     0x0801688d   Thumb Code    46  stm32f1xx_hal_rtc.o(.text)
    RTC_Bcd2ToByte                           0x080168bb   Thumb Code    22  stm32f1xx_hal_rtc.o(.text)
    RTC_ByteToBcd2                           0x080169a7   Thumb Code    26  stm32f1xx_hal_rtc.o(.text)
    RTC_WeekDayNum                           0x080169c1   Thumb Code   132  stm32f1xx_hal_rtc.o(.text)
    RTC_IsLeapYear                           0x08016a45   Thumb Code    50  stm32f1xx_hal_rtc.o(.text)
    RTC_DateUpdate                           0x08016a77   Thumb Code   190  stm32f1xx_hal_rtc.o(.text)
    RTC_ReadTimeCounter                      0x08016b35   Thumb Code    52  stm32f1xx_hal_rtc.o(.text)
    .text                                    0x08017118   Section        0  stm32f1xx_hal_rtc_ex.o(.text)
    .text                                    0x08017400   Section        0  stm32f1xx_hal_spi.o(.text)
    SPI_WaitFlagStateUntilTimeout            0x080174d5   Thumb Code   170  stm32f1xx_hal_spi.o(.text)
    SPI_CheckFlag_BSY                        0x0801757f   Thumb Code    40  stm32f1xx_hal_spi.o(.text)
    SPI_CloseTx_ISR                          0x08017ccf   Thumb Code   154  stm32f1xx_hal_spi.o(.text)
    SPI_TxISR_8BIT                           0x08017d69   Thumb Code    54  stm32f1xx_hal_spi.o(.text)
    SPI_TxISR_16BIT                          0x08017d9f   Thumb Code    56  stm32f1xx_hal_spi.o(.text)
    SPI_CloseRx_ISR                          0x08017eaf   Thumb Code   180  stm32f1xx_hal_spi.o(.text)
    SPI_RxISR_8BITCRC                        0x08017f63   Thumb Code    26  stm32f1xx_hal_spi.o(.text)
    SPI_RxISR_8BIT                           0x08017f7d   Thumb Code    76  stm32f1xx_hal_spi.o(.text)
    SPI_RxISR_16BITCRC                       0x08017fc9   Thumb Code    40  stm32f1xx_hal_spi.o(.text)
    SPI_RxISR_16BIT                          0x08017ff1   Thumb Code    78  stm32f1xx_hal_spi.o(.text)
    SPI_CloseRxTx_ISR                        0x08018041   Thumb Code   286  stm32f1xx_hal_spi.o(.text)
    SPI_2linesTxISR_8BIT                     0x0801815f   Thumb Code    86  stm32f1xx_hal_spi.o(.text)
    SPI_2linesRxISR_8BITCRC                  0x080181b5   Thumb Code    42  stm32f1xx_hal_spi.o(.text)
    SPI_2linesRxISR_8BIT                     0x080181df   Thumb Code    66  stm32f1xx_hal_spi.o(.text)
    SPI_2linesTxISR_16BIT                    0x08018221   Thumb Code    88  stm32f1xx_hal_spi.o(.text)
    SPI_2linesRxISR_16BITCRC                 0x08018279   Thumb Code    40  stm32f1xx_hal_spi.o(.text)
    SPI_2linesRxISR_16BIT                    0x080182a1   Thumb Code    68  stm32f1xx_hal_spi.o(.text)
    SPI_DMAError                             0x080184b3   Thumb Code    40  stm32f1xx_hal_spi.o(.text)
    SPI_DMATransmitCplt                      0x080184db   Thumb Code   116  stm32f1xx_hal_spi.o(.text)
    SPI_DMAHalfTransmitCplt                  0x08018551   Thumb Code    14  stm32f1xx_hal_spi.o(.text)
    SPI_DMAReceiveCplt                       0x08018683   Thumb Code   220  stm32f1xx_hal_spi.o(.text)
    SPI_DMAHalfReceiveCplt                   0x08018761   Thumb Code    14  stm32f1xx_hal_spi.o(.text)
    SPI_DMATransmitReceiveCplt               0x0801876f   Thumb Code   206  stm32f1xx_hal_spi.o(.text)
    SPI_DMAHalfTransmitReceiveCplt           0x0801883f   Thumb Code    14  stm32f1xx_hal_spi.o(.text)
    SPI_AbortRx_ISR                          0x08018ab5   Thumb Code    98  stm32f1xx_hal_spi.o(.text)
    SPI_AbortTx_ISR                          0x08018b17   Thumb Code    26  stm32f1xx_hal_spi.o(.text)
    SPI_DMARxAbortCallback                   0x08018c17   Thumb Code    92  stm32f1xx_hal_spi.o(.text)
    SPI_DMATxAbortCallback                   0x08018c73   Thumb Code   150  stm32f1xx_hal_spi.o(.text)
    SPI_DMAAbortOnError                      0x08018eb3   Thumb Code    20  stm32f1xx_hal_spi.o(.text)
    .text                                    0x08018ffc   Section        0  stm32f1xx_hal_spi_ex.o(.text)
    .text                                    0x080190b4   Section        0  stm32f1xx_hal_tim.o(.text)
    TIM_DMAPeriodElapsedCplt                 0x080192dd   Thumb Code    20  stm32f1xx_hal_tim.o(.text)
    TIM_OC4_SetConfig                        0x0801a993   Thumb Code    80  stm32f1xx_hal_tim.o(.text)
    TIM_OC3_SetConfig                        0x0801a9e3   Thumb Code   130  stm32f1xx_hal_tim.o(.text)
    TIM_OC1_SetConfig                        0x0801aadd   Thumb Code   110  stm32f1xx_hal_tim.o(.text)
    TIM_TI4_SetConfig                        0x0801abbf   Thumb Code    64  stm32f1xx_hal_tim.o(.text)
    TIM_TI3_SetConfig                        0x0801abff   Thumb Code    60  stm32f1xx_hal_tim.o(.text)
    TIM_TI2_SetConfig                        0x0801ac3b   Thumb Code    62  stm32f1xx_hal_tim.o(.text)
    TIM_DMATriggerCplt                       0x0801afff   Thumb Code    20  stm32f1xx_hal_tim.o(.text)
    TIM_ETR_SetConfig                        0x0801b425   Thumb Code    24  stm32f1xx_hal_tim.o(.text)
    TIM_ITRx_SetConfig                       0x0801b54d   Thumb Code    20  stm32f1xx_hal_tim.o(.text)
    TIM_TI1_ConfigInputStage                 0x0801b561   Thumb Code    42  stm32f1xx_hal_tim.o(.text)
    TIM_TI2_ConfigInputStage                 0x0801b58b   Thumb Code    44  stm32f1xx_hal_tim.o(.text)
    TIM_SlaveTimer_SetConfig                 0x0801b701   Thumb Code   164  stm32f1xx_hal_tim.o(.text)
    .text                                    0x0801b8d4   Section        0  stm32f1xx_hal_tim_ex.o(.text)
    TIM_CCxNChannelCmd                       0x0801bb5f   Thumb Code    28  stm32f1xx_hal_tim_ex.o(.text)
    .text                                    0x0801c594   Section        0  stm32f1xx_hal_uart.o(.text)
    UART_SetConfig                           0x0801c595   Thumb Code   450  stm32f1xx_hal_uart.o(.text)
    UART_WaitOnFlagUntilTimeout              0x0801c981   Thumb Code   112  stm32f1xx_hal_uart.o(.text)
    UART_EndRxTransfer                       0x0801cc6f   Thumb Code    32  stm32f1xx_hal_uart.o(.text)
    UART_EndTxTransfer                       0x0801cc8f   Thumb Code    20  stm32f1xx_hal_uart.o(.text)
    UART_DMAError                            0x0801cca3   Thumb Code    80  stm32f1xx_hal_uart.o(.text)
    UART_DMATxHalfCplt                       0x0801ccf5   Thumb Code    14  stm32f1xx_hal_uart.o(.text)
    UART_DMATransmitCplt                     0x0801cd05   Thumb Code    54  stm32f1xx_hal_uart.o(.text)
    UART_DMARxHalfCplt                       0x0801cdcb   Thumb Code    14  stm32f1xx_hal_uart.o(.text)
    UART_DMAReceiveCplt                      0x0801cddb   Thumb Code    70  stm32f1xx_hal_uart.o(.text)
    UART_DMARxAbortCallback                  0x0801d14b   Thumb Code    74  stm32f1xx_hal_uart.o(.text)
    UART_DMATxAbortCallback                  0x0801d195   Thumb Code    52  stm32f1xx_hal_uart.o(.text)
    UART_DMATxOnlyAbortCallback              0x0801d29b   Thumb Code    24  stm32f1xx_hal_uart.o(.text)
    UART_DMARxOnlyAbortCallback              0x0801d31b   Thumb Code    24  stm32f1xx_hal_uart.o(.text)
    UART_EndTransmit_IT                      0x0801d3a5   Thumb Code    32  stm32f1xx_hal_uart.o(.text)
    UART_Transmit_IT                         0x0801d3c5   Thumb Code   104  stm32f1xx_hal_uart.o(.text)
    UART_DMAAbortOnError                     0x0801d42d   Thumb Code    20  stm32f1xx_hal_uart.o(.text)
    UART_Receive_IT                          0x0801d441   Thumb Code   166  stm32f1xx_hal_uart.o(.text)
    .text                                    0x0801d7a0   Section        0  stm32f1xx_hal.o(.text)
    .text                                    0x0801d954   Section        0  stm32f1xx_ll_fsmc.o(.text)
    .text                                    0x0801dd30   Section        0  stm32f1xx_hal_sram.o(.text)
    .text                                    0x0801e0b0   Section       36  startup_stm32f103xe.o(.text)
    .text                                    0x0801e0d4   Section        0  pin.o(.text)
    _pin_read                                0x0801e0d5   Thumb Code    62  pin.o(.text)
    _pin_write                               0x0801e113   Thumb Code    62  pin.o(.text)
    _pin_control                             0x0801e151   Thumb Code    52  pin.o(.text)
    .text                                    0x0801e324   Section        0  serial.o(.text)
    _serial_int_rx                           0x0801e325   Thumb Code   140  serial.o(.text)
    rt_serial_init                           0x0801e3b1   Thumb Code    52  serial.o(.text)
    rt_serial_open                           0x0801e3e5   Thumb Code   346  serial.o(.text)
    rt_serial_close                          0x0801e53f   Thumb Code   152  serial.o(.text)
    rt_serial_read                           0x0801e5d7   Thumb Code    68  serial.o(.text)
    rt_serial_write                          0x0801e61b   Thumb Code    68  serial.o(.text)
    rt_serial_control                        0x0801e65f   Thumb Code   148  serial.o(.text)
    _serial_poll_rx                          0x0801e8a3   Thumb Code    68  serial.o(.text)
    _serial_poll_tx                          0x0801e8e7   Thumb Code    76  serial.o(.text)
    _serial_int_tx                           0x0801e933   Thumb Code    88  serial.o(.text)
    .text                                    0x0801e9c4   Section        0  completion.o(.text)
    rt_list_isempty                          0x0801eb01   Thumb Code    16  completion.o(.text)
    .text                                    0x0801eb90   Section        0  shell.o(.text)
    finsh_getchar                            0x0801ec6f   Thumb Code    60  shell.o(.text)
    finsh_rx_ind                             0x0801ecab   Thumb Code    34  shell.o(.text)
    shell_auto_complete                      0x0801edcf   Thumb Code    50  shell.o(.text)
    shell_handle_history                     0x0801eea5   Thumb Code    32  shell.o(.text)
    shell_push_history                       0x0801eec5   Thumb Code   396  shell.o(.text)
    .text                                    0x0801f670   Section        0  cmd.o(.text)
    rt_list_len                              0x0801f671   Thumb Code    20  cmd.o(.text)
    object_name_maxlen                       0x0801f69b   Thumb Code    70  cmd.o(.text)
    _list_thread                             0x0801f6e1   Thumb Code   194  cmd.o(.text)
    show_wait_queue                          0x0801f7b5   Thumb Code    40  cmd.o(.text)
    _list_sem                                0x0801f7dd   Thumb Code   142  cmd.o(.text)
    _list_event                              0x0801f87d   Thumb Code   130  cmd.o(.text)
    _list_mutex                              0x0801f911   Thumb Code    98  cmd.o(.text)
    _list_mailbox                            0x0801f985   Thumb Code   150  cmd.o(.text)
    _list_msgqueue                           0x0801fa2d   Thumb Code   854  cmd.o(.text)
    _list_memheap                            0x0801fd95   Thumb Code    84  cmd.o(.text)
    _list_mempool                            0x0801fdfb   Thumb Code   138  cmd.o(.text)
    _list_timer                              0x0801fe97   Thumb Code   116  cmd.o(.text)
    _list_device                             0x0801ff1d   Thumb Code   116  cmd.o(.text)
    str_is_prefix                            0x08020021   Thumb Code    34  cmd.o(.text)
    str_common                               0x08020043   Thumb Code    32  cmd.o(.text)
    rt_list_isempty                          0x080204c9   Thumb Code    16  cmd.o(.text)
    object_split                             0x080204d9   Thumb Code    22  cmd.o(.text)
    .text                                    0x08020518   Section        0  msh.o(.text)
    msh_exit                                 0x0802051f   Thumb Code    10  msh.o(.text)
    msh_enter                                0x08020529   Thumb Code    10  msh.o(.text)
    msh_split                                0x08020575   Thumb Code   202  msh.o(.text)
    msh_get_cmd                              0x0802063f   Thumb Code    76  msh.o(.text)
    _msh_exec_cmd                            0x0802068b   Thumb Code   136  msh.o(.text)
    str_common                               0x08020765   Thumb Code    32  msh.o(.text)
    .text                                    0x0802089c   Section        0  msh_cmd.o(.text)
    .text                                    0x080209d8   Section        0  finsh_compiler.o(.text)
    finsh_compile                            0x080209d9   Thumb Code  5712  finsh_compiler.o(.text)
    finsh_type_check                         0x08022029   Thumb Code   350  finsh_compiler.o(.text)
    .text                                    0x080221f0   Section        0  finsh_error.o(.text)
    .text                                    0x0802221c   Section        0  finsh_heap.o(.text)
    finsh_block_insert                       0x08022241   Thumb Code    62  finsh_heap.o(.text)
    finsh_block_remove                       0x0802227f   Thumb Code    46  finsh_heap.o(.text)
    finsh_block_split                        0x080222ad   Thumb Code    24  finsh_heap.o(.text)
    finsh_block_merge                        0x080222c5   Thumb Code   124  finsh_heap.o(.text)
    finsh_heap_gc                            0x08022363   Thumb Code    78  finsh_heap.o(.text)
    .text                                    0x0802242c   Section        0  finsh_init.o(.text)
    .text                                    0x08022484   Section        0  finsh_node.o(.text)
    .text                                    0x08022608   Section        0  finsh_ops.o(.text)
    .text                                    0x080230e0   Section        0  finsh_parser.o(.text)
    make_sys_node                            0x080230e1   Thumb Code    40  finsh_parser.o(.text)
    proc_param_list                          0x08023109   Thumb Code    76  finsh_parser.o(.text)
    proc_expr                                0x08023155   Thumb Code    12  finsh_parser.o(.text)
    proc_identifier                          0x08023161   Thumb Code    44  finsh_parser.o(.text)
    proc_primary_expr                        0x0802318d   Thumb Code   158  finsh_parser.o(.text)
    proc_postfix_expr                        0x0802322b   Thumb Code   162  finsh_parser.o(.text)
    proc_unary_expr                          0x080232cd   Thumb Code   190  finsh_parser.o(.text)
    proc_type                                0x0802338b   Thumb Code   250  finsh_parser.o(.text)
    proc_cast_expr                           0x08023485   Thumb Code    78  finsh_parser.o(.text)
    proc_multiplicative_expr                 0x080234d3   Thumb Code   138  finsh_parser.o(.text)
    proc_additive_expr                       0x0802355d   Thumb Code   114  finsh_parser.o(.text)
    proc_shift_expr                          0x080235cf   Thumb Code   116  finsh_parser.o(.text)
    proc_and_expr                            0x08023643   Thumb Code    76  finsh_parser.o(.text)
    proc_exclusive_or_expr                   0x0802368f   Thumb Code    76  finsh_parser.o(.text)
    proc_inclusive_or_expr                   0x080236db   Thumb Code    76  finsh_parser.o(.text)
    proc_assign_expr                         0x08023727   Thumb Code    56  finsh_parser.o(.text)
    proc_variable_decl                       0x0802375f   Thumb Code   474  finsh_parser.o(.text)
    proc_expr_statement                      0x08023939   Thumb Code    56  finsh_parser.o(.text)
    .text                                    0x08023a5c   Section        0  finsh_var.o(.text)
    .text                                    0x08023bf8   Section        0  finsh_vm.o(.text)
    .text                                    0x08023cdc   Section        0  finsh_token.o(.text)
    token_prev_char                          0x08023cf1   Thumb Code    22  finsh_token.o(.text)
    token_next_char                          0x08023d07   Thumb Code    62  finsh_token.o(.text)
    token_spec_number                        0x08023d45   Thumb Code   152  finsh_token.o(.text)
    token_proc_number                        0x08023ddd   Thumb Code   288  finsh_token.o(.text)
    token_proc_escape                        0x08023efd   Thumb Code   214  finsh_token.o(.text)
    token_proc_string                        0x08023fd3   Thumb Code    80  finsh_token.o(.text)
    token_proc_char                          0x08024023   Thumb Code   162  finsh_token.o(.text)
    token_match_name                         0x080240c5   Thumb Code    48  finsh_token.o(.text)
    token_trim_space                         0x0802416d   Thumb Code    34  finsh_token.o(.text)
    token_run                                0x0802418f   Thumb Code   414  finsh_token.o(.text)
    .text                                    0x0802435c   Section        0  libc.o(.text)
    .text                                    0x08024360   Section        0  stubs.o(.text)
    .text                                    0x080244a4   Section        0  api_lib.o(.text)
    netconn_recv_data                        0x0802486f   Thumb Code   908  api_lib.o(.text)
    netconn_close_shutdown                   0x08024fab   Thumb Code    90  api_lib.o(.text)
    .text                                    0x080251c4   Section        0  api_msg.o(.text)
    recv_raw                                 0x080251c5   Thumb Code   198  api_msg.o(.text)
    recv_udp                                 0x0802528b   Thumb Code   246  api_msg.o(.text)
    recv_tcp                                 0x08025381   Thumb Code   224  api_msg.o(.text)
    err_tcp                                  0x08025461   Thumb Code   258  api_msg.o(.text)
    do_writemore                             0x08025563   Thumb Code   934  api_msg.o(.text)
    sent_tcp                                 0x08025909   Thumb Code   130  api_msg.o(.text)
    do_close_internal                        0x0802598b   Thumb Code   452  api_msg.o(.text)
    poll_tcp                                 0x08025b4f   Thumb Code   370  api_msg.o(.text)
    setup_tcp                                0x08025cc1   Thumb Code    50  api_msg.o(.text)
    accept_function                          0x08025e33   Thumb Code   168  api_msg.o(.text)
    pcb_new                                  0x08025edb   Thumb Code   176  api_msg.o(.text)
    netconn_drain                            0x08025fab   Thumb Code   202  api_msg.o(.text)
    do_connected                             0x08026375   Thumb Code   208  api_msg.o(.text)
    do_dns_found                             0x08026a4b   Thumb Code    78  api_msg.o(.text)
    .text                                    0x08026b18   Section        0  netbuf.o(.text)
    .text                                    0x08026ec0   Section        0  sockets.o(.text)
    get_socket                               0x08026ec3   Thumb Code    54  sockets.o(.text)
    tryget_socket                            0x08026ef9   Thumb Code    42  sockets.o(.text)
    alloc_socket                             0x08026f2f   Thumb Code   156  sockets.o(.text)
    free_socket                              0x08026fcb   Thumb Code    48  sockets.o(.text)
    event_callback                           0x080279f3   Thumb Code   356  sockets.o(.text)
    lwip_selscan                             0x08027c19   Thumb Code   416  sockets.o(.text)
    lwip_getaddrname                         0x08028217   Thumb Code   126  sockets.o(.text)
    lwip_getsockopt_internal                 0x080282c1   Thumb Code   552  sockets.o(.text)
    lwip_setsockopt_internal                 0x08028697   Thumb Code   636  sockets.o(.text)
    .text                                    0x08028c78   Section        0  tcpip.o(.text)
    tcpip_thread                             0x08028c79   Thumb Code   222  tcpip.o(.text)
    pbuf_free_int                            0x08028f85   Thumb Code    14  tcpip.o(.text)
    .text                                    0x0802904c   Section        0  sys_arch.o(.text)
    .text                                    0x080295e8   Section        0  def.o(.text)
    .text                                    0x08029628   Section        0  dhcp.o(.text)
    dhcp_delete_msg                          0x08029629   Thumb Code   108  dhcp.o(.text)
    dhcp_option_trailer                      0x08029695   Thumb Code   144  dhcp.o(.text)
    dhcp_option_byte                         0x08029725   Thumb Code    50  dhcp.o(.text)
    dhcp_option                              0x08029757   Thumb Code    68  dhcp.o(.text)
    dhcp_option_short                        0x0802979b   Thumb Code    66  dhcp.o(.text)
    dhcp_create_msg                          0x080297dd   Thumb Code   434  dhcp.o(.text)
    dhcp_set_state                           0x0802998f   Thumb Code    16  dhcp.o(.text)
    dhcp_discover                            0x0802999f   Thumb Code   788  dhcp.o(.text)
    dhcp_handle_nak                          0x08029cb3   Thumb Code    52  dhcp.o(.text)
    dhcp_check                               0x08029ce7   Thumb Code    56  dhcp.o(.text)
    dhcp_option_long                         0x08029d1f   Thumb Code   100  dhcp.o(.text)
    dhcp_select                              0x08029d83   Thumb Code   240  dhcp.o(.text)
    dhcp_handle_offer                        0x08029e73   Thumb Code    36  dhcp.o(.text)
    dhcp_t1_timeout                          0x08029f1b   Thumb Code    32  dhcp.o(.text)
    dhcp_rebind                              0x08029f3b   Thumb Code   130  dhcp.o(.text)
    dhcp_t2_timeout                          0x08029fbd   Thumb Code    32  dhcp.o(.text)
    dhcp_reboot                              0x0802a01b   Thumb Code   250  dhcp.o(.text)
    dhcp_bind                                0x0802a1b5   Thumb Code   272  dhcp.o(.text)
    dhcp_timeout                             0x0802a2c5   Thumb Code   164  dhcp.o(.text)
    dhcp_handle_ack                          0x0802a3a9   Thumb Code   160  dhcp.o(.text)
    dhcp_parse_reply                         0x0802a5db   Thumb Code  1290  dhcp.o(.text)
    dhcp_recv                                0x0802aae5   Thumb Code   272  dhcp.o(.text)
    dhcp_decline                             0x0802ae5f   Thumb Code   126  dhcp.o(.text)
    .text                                    0x0802af28   Section        0  dns.o(.text)
    dns_parse_name                           0x0802af45   Thumb Code    42  dns.o(.text)
    dns_compare_name                         0x0802af6f   Thumb Code    60  dns.o(.text)
    dns_recv                                 0x0802afab   Thumb Code   348  dns.o(.text)
    dns_send                                 0x0802b169   Thumb Code   316  dns.o(.text)
    dns_check_entry                          0x0802b2a5   Thumb Code   494  dns.o(.text)
    dns_check_entries                        0x0802b493   Thumb Code    22  dns.o(.text)
    dns_lookup                               0x0802b4b7   Thumb Code    86  dns.o(.text)
    dns_enqueue                              0x0802b50d   Thumb Code   218  dns.o(.text)
    .text                                    0x0802b66c   Section        0  init.o(.text)
    .text                                    0x0802b694   Section        0  memp.o(.text)
    .text                                    0x0802b834   Section        0  netif.o(.text)
    .text                                    0x0802bb84   Section        0  pbuf.o(.text)
    pbuf_free_ooseq                          0x0802bb85   Thumb Code    48  pbuf.o(.text)
    pbuf_free_ooseq_callback                 0x0802bbb5   Thumb Code    10  pbuf.o(.text)
    pbuf_pool_is_empty                       0x0802bbbf   Thumb Code    54  pbuf.o(.text)
    .text                                    0x0802cb3c   Section        0  raw.o(.text)
    .text                                    0x0802cd94   Section        0  tcp.o(.text)
    tcp_close_shutdown                       0x0802d46f   Thumb Code   460  tcp.o(.text)
    tcp_new_port                             0x0802dae5   Thumb Code    96  tcp.o(.text)
    tcp_accept_null                          0x0802dc05   Thumb Code     8  tcp.o(.text)
    tcp_kill_prio                            0x0802dfcf   Thumb Code    76  tcp.o(.text)
    tcp_kill_timewait                        0x0802e01b   Thumb Code    50  tcp.o(.text)
    .text                                    0x0802e2c0   Section        0  tcp_in.o(.text)
    tcp_oos_insert_segment                   0x0802e2c1   Thumb Code   138  tcp_in.o(.text)
    tcp_receive                              0x0802e34b   Thumb Code  3434  tcp_in.o(.text)
    tcp_parseopt                             0x0802f0b5   Thumb Code   178  tcp_in.o(.text)
    tcp_process                              0x0802f167   Thumb Code  1538  tcp_in.o(.text)
    tcp_listen_input                         0x0802f769   Thumb Code   268  tcp_in.o(.text)
    tcp_timewait_input                       0x0802f875   Thumb Code   192  tcp_in.o(.text)
    .text                                    0x0802ffbc   Section        0  tcp_out.o(.text)
    tcp_output_alloc_header                  0x0802ffbd   Thumb Code   150  tcp_out.o(.text)
    tcp_create_segment                       0x08030053   Thumb Code   172  tcp_out.o(.text)
    tcp_pbuf_prealloc                        0x080302df   Thumb Code   144  tcp_out.o(.text)
    tcp_write_checks                         0x0803036f   Thumb Code   476  tcp_out.o(.text)
    tcp_output_segment                       0x08030bc9   Thumb Code   224  tcp_out.o(.text)
    .text                                    0x080311fc   Section        0  timers.o(.text)
    tcpip_tcp_timer                          0x080312ad   Thumb Code    40  timers.o(.text)
    arp_timer                                0x080312fb   Thumb Code    22  timers.o(.text)
    dhcp_timer_coarse                        0x08031311   Thumb Code    22  timers.o(.text)
    dhcp_timer_fine                          0x08031327   Thumb Code    22  timers.o(.text)
    igmp_timer                               0x0803133d   Thumb Code    20  timers.o(.text)
    dns_timer                                0x08031351   Thumb Code    22  timers.o(.text)
    .text                                    0x08031524   Section        0  udp.o(.text)
    udp_new_port                             0x08031527   Thumb Code    80  udp.o(.text)
    .text                                    0x08031b50   Section        0  icmp.o(.text)
    icmp_send_response                       0x08031d3f   Thumb Code   138  icmp.o(.text)
    .text                                    0x08031f38   Section        0  igmp.o(.text)
    igmp_lookup_group                        0x08031f6f   Thumb Code    72  igmp.o(.text)
    igmp_start_timer                         0x08032037   Thumb Code    30  igmp.o(.text)
    igmp_delaying_member                     0x08032055   Thumb Code    42  igmp.o(.text)
    igmp_remove_group                        0x0803209f   Thumb Code    68  igmp.o(.text)
    igmp_ip_output_if                        0x080321db   Thumb Code    60  igmp.o(.text)
    igmp_send                                0x08032217   Thumb Code   152  igmp.o(.text)
    igmp_timeout                             0x080324d9   Thumb Code    20  igmp.o(.text)
    .text                                    0x080325fc   Section        0  inet_chksum.o(.text)
    lwip_standard_chksum                     0x080325fd   Thumb Code    94  inet_chksum.o(.text)
    .text                                    0x08032888   Section        0  ip.o(.text)
    .text                                    0x08032d68   Section        0  ip_addr.o(.text)
    .text                                    0x08033078   Section        0  etharp.o(.text)
    free_etharp_q                            0x08033079   Thumb Code   106  etharp.o(.text)
    etharp_free_entry                        0x080330e3   Thumb Code    58  etharp.o(.text)
    etharp_find_entry                        0x080331a7   Thumb Code   494  etharp.o(.text)
    etharp_send_ip                           0x08033395   Thumb Code    84  etharp.o(.text)
    etharp_update_arp_entry                  0x080333e9   Thumb Code   532  etharp.o(.text)
    etharp_arp_input                         0x0803369d   Thumb Code   320  etharp.o(.text)
    etharp_raw                               0x080337dd   Thumb Code   260  etharp.o(.text)
    etharp_output_to_arp_index               0x08033905   Thumb Code   314  etharp.o(.text)
    .text                                    0x08033f0c   Section        0  ethernetif.o(.text)
    low_level_init                           0x08033f0d   Thumb Code    72  ethernetif.o(.text)
    low_level_output                         0x08033f55   Thumb Code    16  ethernetif.o(.text)
    low_level_input                          0x08033f65   Thumb Code    10  ethernetif.o(.text)
    .text                                    0x08034030   Section        0  lwip_comm.o(.text)
    .text                                    0x0803465c   Section        0  fs.o(.text)
    fs_malloc                                0x0803465d   Thumb Code    54  fs.o(.text)
    fs_free                                  0x08034693   Thumb Code    48  fs.o(.text)
    .text                                    0x08034764   Section        0  httpd.o(.text)
    strnstr                                  0x08034765   Thumb Code    74  httpd.o(.text)
    http_state_alloc                         0x080347af   Thumb Code    28  httpd.o(.text)
    http_state_free                          0x080347cb   Thumb Code    42  httpd.o(.text)
    http_write                               0x080347f5   Thumb Code   104  httpd.o(.text)
    get_tag_insert                           0x0803485d   Thumb Code   204  httpd.o(.text)
    http_send_data                           0x08034929   Thumb Code  1658  httpd.o(.text)
    http_poll                                0x08034fa3   Thumb Code    72  httpd.o(.text)
    http_close_conn                          0x08034feb   Thumb Code    76  httpd.o(.text)
    extract_uri_parameters                   0x08035037   Thumb Code   164  httpd.o(.text)
    http_get_404_file                        0x080350db   Thumb Code    54  httpd.o(.text)
    http_init_file                           0x08035111   Thumb Code   170  httpd.o(.text)
    http_find_file                           0x080351bb   Thumb Code   308  httpd.o(.text)
    http_parse_request                       0x080352ef   Thumb Code   338  httpd.o(.text)
    http_err                                 0x08035441   Thumb Code    18  httpd.o(.text)
    http_sent                                0x08035453   Thumb Code    36  httpd.o(.text)
    http_recv                                0x08035477   Thumb Code   366  httpd.o(.text)
    http_accept                              0x080355e5   Thumb Code   112  httpd.o(.text)
    httpd_init_addr                          0x08035655   Thumb Code   136  httpd.o(.text)
    .text                                    0x080358ec   Section        0  httpd_cgi_ssi.o(.text)
    FindCGIParameter                         0x080358ed   Thumb Code    44  httpd_cgi_ssi.o(.text)
    SSIHandler                               0x08035c13   Thumb Code    92  httpd_cgi_ssi.o(.text)
    .text                                    0x08036848   Section        0  llushr.o(.text)
    .text                                    0x08036868   Section        0  rand.o(.text)
    .text                                    0x0803688c   Section        0  memcpya.o(.text)
    .text                                    0x080368b0   Section        0  memseta.o(.text)
    .text                                    0x080368d4   Section        0  strcat.o(.text)
    .text                                    0x080368ec   Section        0  strstr.o(.text)
    .text                                    0x08036910   Section        0  strncpy.o(.text)
    .text                                    0x08036928   Section        0  strchr.o(.text)
    .text                                    0x0803693c   Section        0  strlen.o(.text)
    .text                                    0x0803694a   Section        0  strcmp.o(.text)
    .text                                    0x08036966   Section        0  memcmp.o(.text)
    .text                                    0x08036980   Section        0  strcpy.o(.text)
    .text                                    0x08036992   Section        0  strncmp.o(.text)
    .text                                    0x080369b0   Section        0  atoi.o(.text)
    .text                                    0x080369ca   Section        0  fadd.o(.text)
    .text                                    0x08036a7a   Section        0  fmul.o(.text)
    .text                                    0x08036ade   Section        0  fdiv.o(.text)
    .text                                    0x08036b5a   Section        0  dadd.o(.text)
    .text                                    0x08036ca8   Section        0  dmul.o(.text)
    .text                                    0x08036d8c   Section        0  fflti.o(.text)
    .text                                    0x08036d9e   Section        0  ffltui.o(.text)
    .text                                    0x08036da8   Section        0  dflti.o(.text)
    .text                                    0x08036dca   Section        0  dfltui.o(.text)
    .text                                    0x08036de4   Section        0  ffixi.o(.text)
    .text                                    0x08036e16   Section        0  ffixui.o(.text)
    .text                                    0x08036e3e   Section        0  dfixi.o(.text)
    .text                                    0x08036e7c   Section        0  dfixui.o(.text)
    .text                                    0x08036eae   Section        0  f2d.o(.text)
    .text                                    0x08036ed4   Section       48  cdcmple.o(.text)
    .text                                    0x08036f04   Section       48  cdrcmple.o(.text)
    .text                                    0x08036f34   Section        0  d2f.o(.text)
    .text                                    0x08036f6c   Section       20  cfcmple.o(.text)
    .text                                    0x08036f80   Section        0  uidiv.o(.text)
    .text                                    0x08036fac   Section        0  uldiv.o(.text)
    .text                                    0x0803700e   Section        0  llshl.o(.text)
    .text                                    0x0803702c   Section        0  llsshr.o(.text)
    .text                                    0x08037050   Section        0  strtol.o(.text)
    .text                                    0x080370c0   Section        0  iusefp.o(.text)
    .text                                    0x080370c0   Section        0  fepilogue.o(.text)
    .text                                    0x0803712e   Section        0  depilogue.o(.text)
    .text                                    0x080371e8   Section        0  ddiv.o(.text)
    .text                                    0x080372c6   Section        0  dsqrt.o(.text)
    .text                                    0x08037368   Section        0  dfixul.o(.text)
    .text                                    0x08037398   Section       36  init.o(.text)
    .text                                    0x080373bc   Section        0  ctype_o.o(.text)
    .text                                    0x080373c4   Section        0  _strtoul.o(.text)
    .text                                    0x08037462   Section        0  _chval.o(.text)
    .text                                    0x0803747e   Section        0  __dczerorl2.o(.text)
    i.__0printf                              0x080374d4   Section        0  printfa.o(i.__0printf)
    i.__0sprintf                             0x080374f4   Section        0  printfa.o(i.__0sprintf)
    i.__aeabi_errno_addr                     0x0803751c   Section        0  errno.o(i.__aeabi_errno_addr)
    i.__scatterload_copy                     0x08037524   Section       14  handlers.o(i.__scatterload_copy)
    i.__scatterload_null                     0x08037532   Section        2  handlers.o(i.__scatterload_null)
    i.__scatterload_zeroinit                 0x08037534   Section       14  handlers.o(i.__scatterload_zeroinit)
    i.__set_errno                            0x08037544   Section        0  errno.o(i.__set_errno)
    i._fp_digits                             0x08037550   Section        0  printfa.o(i._fp_digits)
    _fp_digits                               0x08037551   Thumb Code   366  printfa.o(i._fp_digits)
    i._printf_core                           0x080376d4   Section        0  printfa.o(i._printf_core)
    _printf_core                             0x080376d5   Thumb Code  1744  printfa.o(i._printf_core)
    i._printf_post_padding                   0x08037db0   Section        0  printfa.o(i._printf_post_padding)
    _printf_post_padding                     0x08037db1   Thumb Code    36  printfa.o(i._printf_post_padding)
    i._printf_pre_padding                    0x08037dd4   Section        0  printfa.o(i._printf_pre_padding)
    _printf_pre_padding                      0x08037dd5   Thumb Code    46  printfa.o(i._printf_pre_padding)
    i._sputc                                 0x08037e02   Section        0  printfa.o(i._sputc)
    _sputc                                   0x08037e03   Thumb Code    10  printfa.o(i._sputc)
    i.sqrt                                   0x08037e0c   Section        0  sqrt.o(i.sqrt)
    .constdata                               0x08037e58   Section       20  components.o(.constdata)
    __FUNCTION__                             0x08037e58   Data          20  components.o(.constdata)
    .constdata                               0x08037e6c   Section      201  device.o(.constdata)
    __FUNCTION__                             0x08037e6c   Data          21  device.o(.constdata)
    __FUNCTION__                             0x08037e81   Data          15  device.o(.constdata)
    __FUNCTION__                             0x08037e90   Data          18  device.o(.constdata)
    __FUNCTION__                             0x08037ea2   Data          15  device.o(.constdata)
    __FUNCTION__                             0x08037eb1   Data          15  device.o(.constdata)
    __FUNCTION__                             0x08037ec0   Data          16  device.o(.constdata)
    __FUNCTION__                             0x08037ed0   Data          15  device.o(.constdata)
    __FUNCTION__                             0x08037edf   Data          16  device.o(.constdata)
    __FUNCTION__                             0x08037eef   Data          18  device.o(.constdata)
    __FUNCTION__                             0x08037f01   Data          26  device.o(.constdata)
    __FUNCTION__                             0x08037f1b   Data          26  device.o(.constdata)
    .constdata                               0x08037f35   Section       22  idle.o(.constdata)
    __FUNCTION__                             0x08037f35   Data          22  idle.o(.constdata)
    .constdata                               0x08037f4b   Section      503  ipc.o(.constdata)
    __FUNCTION__                             0x08037f4b   Data          12  ipc.o(.constdata)
    __FUNCTION__                             0x08037f57   Data          14  ipc.o(.constdata)
    __FUNCTION__                             0x08037f65   Data          14  ipc.o(.constdata)
    __FUNCTION__                             0x08037f73   Data          14  ipc.o(.constdata)
    __FUNCTION__                             0x08037f81   Data          12  ipc.o(.constdata)
    __FUNCTION__                             0x08037f8d   Data          15  ipc.o(.constdata)
    __FUNCTION__                             0x08037f9c   Data          15  ipc.o(.constdata)
    __FUNCTION__                             0x08037fab   Data          14  ipc.o(.constdata)
    __FUNCTION__                             0x08037fb9   Data          16  ipc.o(.constdata)
    __FUNCTION__                             0x08037fc9   Data          16  ipc.o(.constdata)
    __FUNCTION__                             0x08037fd9   Data          16  ipc.o(.constdata)
    __FUNCTION__                             0x08037fe9   Data          14  ipc.o(.constdata)
    __FUNCTION__                             0x08037ff7   Data          17  ipc.o(.constdata)
    __FUNCTION__                             0x08038008   Data          17  ipc.o(.constdata)
    __FUNCTION__                             0x08038019   Data          14  ipc.o(.constdata)
    __FUNCTION__                             0x08038027   Data          16  ipc.o(.constdata)
    __FUNCTION__                             0x08038037   Data          16  ipc.o(.constdata)
    __FUNCTION__                             0x08038047   Data          16  ipc.o(.constdata)
    __FUNCTION__                             0x08038057   Data          14  ipc.o(.constdata)
    __FUNCTION__                             0x08038065   Data          14  ipc.o(.constdata)
    __FUNCTION__                             0x08038073   Data          17  ipc.o(.constdata)
    __FUNCTION__                             0x08038084   Data          11  ipc.o(.constdata)
    __FUNCTION__                             0x0803808f   Data          13  ipc.o(.constdata)
    __FUNCTION__                             0x0803809c   Data          13  ipc.o(.constdata)
    __FUNCTION__                             0x080380a9   Data          13  ipc.o(.constdata)
    __FUNCTION__                             0x080380b6   Data          16  ipc.o(.constdata)
    __FUNCTION__                             0x080380c6   Data          11  ipc.o(.constdata)
    __FUNCTION__                             0x080380d1   Data          14  ipc.o(.constdata)
    __FUNCTION__                             0x080380df   Data          11  ipc.o(.constdata)
    __FUNCTION__                             0x080380ea   Data          13  ipc.o(.constdata)
    __FUNCTION__                             0x080380f7   Data          13  ipc.o(.constdata)
    __FUNCTION__                             0x08038104   Data          13  ipc.o(.constdata)
    __FUNCTION__                             0x08038111   Data          11  ipc.o(.constdata)
    __FUNCTION__                             0x0803811c   Data          13  ipc.o(.constdata)
    __FUNCTION__                             0x08038129   Data          11  ipc.o(.constdata)
    __FUNCTION__                             0x08038134   Data          14  ipc.o(.constdata)
    .constdata                               0x08038142   Section      290  kservice.o(.constdata)
    small_digits                             0x08038242   Data          17  kservice.o(.constdata)
    large_digits                             0x08038253   Data          17  kservice.o(.constdata)
    .constdata                               0x08038264   Section       70  mem.o(.constdata)
    __FUNCTION__                             0x08038264   Data          11  mem.o(.constdata)
    __FUNCTION__                             0x0803826f   Data          20  mem.o(.constdata)
    __FUNCTION__                             0x08038283   Data          10  mem.o(.constdata)
    __FUNCTION__                             0x0803828d   Data          11  mem.o(.constdata)
    __FUNCTION__                             0x08038298   Data          10  mem.o(.constdata)
    __FUNCTION__                             0x080382a2   Data           8  mem.o(.constdata)
    .constdata                               0x080382aa   Section       62  mempool.o(.constdata)
    __FUNCTION__                             0x080382aa   Data          11  mempool.o(.constdata)
    __FUNCTION__                             0x080382b5   Data          13  mempool.o(.constdata)
    __FUNCTION__                             0x080382c2   Data          13  mempool.o(.constdata)
    __FUNCTION__                             0x080382cf   Data          13  mempool.o(.constdata)
    __FUNCTION__                             0x080382dc   Data          12  mempool.o(.constdata)
    .constdata                               0x080382e8   Section      128  object.o(.constdata)
    __FUNCTION__                             0x080382e8   Data          15  object.o(.constdata)
    __FUNCTION__                             0x080382f7   Data          17  object.o(.constdata)
    __FUNCTION__                             0x08038308   Data          19  object.o(.constdata)
    __FUNCTION__                             0x0803831b   Data          17  object.o(.constdata)
    __FUNCTION__                             0x0803832c   Data          26  object.o(.constdata)
    __FUNCTION__                             0x08038346   Data          19  object.o(.constdata)
    __FUNCTION__                             0x08038359   Data          15  object.o(.constdata)
    .constdata                               0x08038368   Section       78  scheduler.o(.constdata)
    __FUNCTION__                             0x08038368   Data          26  scheduler.o(.constdata)
    __FUNCTION__                             0x08038382   Data          26  scheduler.o(.constdata)
    __FUNCTION__                             0x0803839c   Data          26  scheduler.o(.constdata)
    .constdata                               0x080383b6   Section       72  signal.o(.constdata)
    __FUNCTION__                             0x080383b6   Data          15  signal.o(.constdata)
    __FUNCTION__                             0x080383c5   Data          20  signal.o(.constdata)
    __FUNCTION__                             0x080383d9   Data          15  signal.o(.constdata)
    __FUNCTION__                             0x080383e8   Data          22  signal.o(.constdata)
    .constdata                               0x080383fe   Section      185  thread.o(.constdata)
    __FUNCTION__                             0x080383fe   Data          16  thread.o(.constdata)
    __FUNCTION__                             0x0803840e   Data          15  thread.o(.constdata)
    __FUNCTION__                             0x0803841d   Data          18  thread.o(.constdata)
    __FUNCTION__                             0x0803842f   Data          17  thread.o(.constdata)
    __FUNCTION__                             0x08038440   Data          17  thread.o(.constdata)
    __FUNCTION__                             0x08038451   Data          16  thread.o(.constdata)
    __FUNCTION__                             0x08038461   Data          18  thread.o(.constdata)
    __FUNCTION__                             0x08038473   Data          18  thread.o(.constdata)
    __FUNCTION__                             0x08038485   Data          17  thread.o(.constdata)
    __FUNCTION__                             0x08038496   Data          18  thread.o(.constdata)
    __FUNCTION__                             0x080384a8   Data          15  thread.o(.constdata)
    .constdata                               0x080384b7   Section       92  timer.o(.constdata)
    __FUNCTION__                             0x080384b7   Data          14  timer.o(.constdata)
    __FUNCTION__                             0x080384c5   Data          16  timer.o(.constdata)
    __FUNCTION__                             0x080384d5   Data          16  timer.o(.constdata)
    __FUNCTION__                             0x080384e5   Data          15  timer.o(.constdata)
    __FUNCTION__                             0x080384f4   Data          14  timer.o(.constdata)
    __FUNCTION__                             0x08038502   Data          17  timer.o(.constdata)
    .constdata                               0x08038513   Section       19  cpuport.o(.constdata)
    __FUNCTION__                             0x08038513   Data          19  cpuport.o(.constdata)
    .constdata                               0x08038526   Section       10  24l01.o(.constdata)
    .constdata                               0x08038530   Section       10  ft5206.o(.constdata)
    .constdata                               0x0803853a   Section      194  gt9147.o(.constdata)
    .constdata                               0x080385fc   Section    18240  lcd.o(.constdata)
    .constdata                               0x0803cd3c   Section       10  ott2001a.o(.constdata)
    .constdata                               0x0803cd46   Section       24  rtc.o(.constdata)
    .constdata                               0x0803cd60   Section        4  touch.o(.constdata)
    .constdata                               0x0803cd64   Section       19  board.o(.constdata)
    __FUNCTION__                             0x0803cd64   Data          19  board.o(.constdata)
    .constdata                               0x0803cd78   Section      380  drv_gpio.o(.constdata)
    pins                                     0x0803cd78   Data         290  drv_gpio.o(.constdata)
    pin_irq_map                              0x0803ce9a   Data          64  drv_gpio.o(.constdata)
    _stm32_pin_ops                           0x0803cedc   Data          24  drv_gpio.o(.constdata)
    .constdata                               0x0803cef4   Section       92  drv_usart.o(.constdata)
    stm32_uart_ops                           0x0803cef4   Data          20  drv_usart.o(.constdata)
    __FUNCTION__                             0x0803cf08   Data          16  drv_usart.o(.constdata)
    __FUNCTION__                             0x0803cf18   Data          14  drv_usart.o(.constdata)
    __FUNCTION__                             0x0803cf26   Data          11  drv_usart.o(.constdata)
    __FUNCTION__                             0x0803cf31   Data          11  drv_usart.o(.constdata)
    __FUNCTION__                             0x0803cf3c   Data           9  drv_usart.o(.constdata)
    .constdata                               0x0803cf50   Section       24  system_stm32f1xx.o(.constdata)
    .constdata                               0x0803cf68   Section      125  pin.o(.constdata)
    __FUNCTION__                             0x0803cf68   Data          10  pin.o(.constdata)
    __FUNCTION__                             0x0803cf72   Data          11  pin.o(.constdata)
    __FUNCTION__                             0x0803cf7d   Data          13  pin.o(.constdata)
    __FUNCTION__                             0x0803cf8a   Data          18  pin.o(.constdata)
    __FUNCTION__                             0x0803cf9c   Data          18  pin.o(.constdata)
    __FUNCTION__                             0x0803cfae   Data          18  pin.o(.constdata)
    __FUNCTION__                             0x0803cfc0   Data          12  pin.o(.constdata)
    __FUNCTION__                             0x0803cfcc   Data          13  pin.o(.constdata)
    __FUNCTION__                             0x0803cfd9   Data          12  pin.o(.constdata)
    .constdata                               0x0803cfe5   Section      196  serial.o(.constdata)
    __FUNCTION__                             0x0803cfe5   Data          16  serial.o(.constdata)
    __FUNCTION__                             0x0803cff5   Data          16  serial.o(.constdata)
    __FUNCTION__                             0x0803d005   Data          15  serial.o(.constdata)
    __FUNCTION__                             0x0803d014   Data          15  serial.o(.constdata)
    __FUNCTION__                             0x0803d023   Data          15  serial.o(.constdata)
    __FUNCTION__                             0x0803d032   Data          15  serial.o(.constdata)
    __FUNCTION__                             0x0803d041   Data          16  serial.o(.constdata)
    __FUNCTION__                             0x0803d051   Data          15  serial.o(.constdata)
    __FUNCTION__                             0x0803d060   Data          16  serial.o(.constdata)
    __FUNCTION__                             0x0803d070   Data          18  serial.o(.constdata)
    __FUNCTION__                             0x0803d082   Data          22  serial.o(.constdata)
    __FUNCTION__                             0x0803d098   Data          17  serial.o(.constdata)
    .constdata                               0x0803d0a9   Section       57  completion.o(.constdata)
    __FUNCTION__                             0x0803d0a9   Data          19  completion.o(.constdata)
    __FUNCTION__                             0x0803d0bc   Data          19  completion.o(.constdata)
    __FUNCTION__                             0x0803d0cf   Data          19  completion.o(.constdata)
    .constdata                               0x0803d0e2   Section      135  shell.o(.constdata)
    __FUNCTION__                             0x0803d0e2   Data          22  shell.o(.constdata)
    __FUNCTION__                             0x0803d0f8   Data          22  shell.o(.constdata)
    __FUNCTION__                             0x0803d10e   Data          14  shell.o(.constdata)
    __FUNCTION__                             0x0803d11c   Data          13  shell.o(.constdata)
    __FUNCTION__                             0x0803d129   Data          17  shell.o(.constdata)
    __FUNCTION__                             0x0803d13a   Data          17  shell.o(.constdata)
    __FUNCTION__                             0x0803d14b   Data          15  shell.o(.constdata)
    __FUNCTION__                             0x0803d15a   Data          15  shell.o(.constdata)
    .constdata                               0x0803d16c   Section       80  cmd.o(.constdata)
    .constdata                               0x0803d1bc   Section       14  msh.o(.constdata)
    __FUNCTION__                             0x0803d1bc   Data          14  msh.o(.constdata)
    .constdata                               0x0803d1cc   Section      196  finsh_ops.o(.constdata)
    .constdata                               0x0803d290   Section       64  finsh_token.o(.constdata)
    finsh_name_table                         0x0803d290   Data          64  finsh_token.o(.constdata)
    .constdata                               0x0803d2d0   Section       27  stubs.o(.constdata)
    __FUNCTION__                             0x0803d2e4   Data           7  stubs.o(.constdata)
    .constdata                               0x0803d2ec   Section       64  sockets.o(.constdata)
    err_to_errno_table                       0x0803d2ec   Data          64  sockets.o(.constdata)
    .constdata                               0x0803d32c   Section      179  sys_arch.o(.constdata)
    __FUNCTION__                             0x0803d32c   Data          12  sys_arch.o(.constdata)
    __FUNCTION__                             0x0803d338   Data          13  sys_arch.o(.constdata)
    __FUNCTION__                             0x0803d345   Data          18  sys_arch.o(.constdata)
    __FUNCTION__                             0x0803d357   Data          14  sys_arch.o(.constdata)
    __FUNCTION__                             0x0803d365   Data          15  sys_arch.o(.constdata)
    __FUNCTION__                             0x0803d374   Data          15  sys_arch.o(.constdata)
    __FUNCTION__                             0x0803d383   Data          13  sys_arch.o(.constdata)
    __FUNCTION__                             0x0803d390   Data          14  sys_arch.o(.constdata)
    __FUNCTION__                             0x0803d39e   Data          14  sys_arch.o(.constdata)
    __FUNCTION__                             0x0803d3ac   Data          20  sys_arch.o(.constdata)
    __FUNCTION__                             0x0803d3c0   Data          15  sys_arch.o(.constdata)
    __FUNCTION__                             0x0803d3cf   Data          16  sys_arch.o(.constdata)
    .constdata                               0x0803d3e0   Section       60  memp.o(.constdata)
    memp_sizes                               0x0803d3e0   Data          30  memp.o(.constdata)
    memp_num                                 0x0803d3fe   Data          30  memp.o(.constdata)
    .constdata                               0x0803d41c   Section       80  tcp.o(.constdata)
    .constdata                               0x0803d46c   Section        8  ip_addr.o(.constdata)
    .constdata                               0x0803d474   Section       12  etharp.o(.constdata)
    .constdata                               0x0803d480   Section    78560  fs.o(.constdata)
    data__image_tab_jpg                      0x0803d480   Data        1503  fs.o(.constdata)
    data__404_html                           0x0803da5f   Data        1807  fs.o(.constdata)
    data__alloff_shtml                       0x0803e16e   Data        4196  fs.o(.constdata)
    data__allon_shtml                        0x0803f1d2   Data        4236  fs.o(.constdata)
    data__bedroomon_shtml                    0x0804025e   Data        4210  fs.o(.constdata)
    data__bedroomon_corridoron_shtml         0x080412d0   Data        4228  fs.o(.constdata)
    data__beepon_shtml                       0x08042354   Data        4206  fs.o(.constdata)
    data__beepon_Bedroomon_shtml             0x080433c2   Data        4224  fs.o(.constdata)
    data__beepon_bedroomon_corridoron_shtml  0x08044442   Data        4246  fs.o(.constdata)
    data__beepon_corridoron_shtml            0x080454d8   Data        4228  fs.o(.constdata)
    data__corridoron_shtml                   0x0804655c   Data        4210  fs.o(.constdata)
    data__index_html                         0x080475ce   Data        2107  fs.o(.constdata)
    data__modehome_shtml                     0x08047e09   Data        4198  fs.o(.constdata)
    data__modehome_bedroomon_shtml           0x08048e6f   Data        4228  fs.o(.constdata)
    data__modehome_bedroomon_corridoron_shtml 0x08049ef3   Data        4250  fs.o(.constdata)
    data__modehome_beepon_shtml              0x0804af8d   Data        4224  fs.o(.constdata)
    data__modehome_beepon_bedroomon_shtml    0x0804c00d   Data        4246  fs.o(.constdata)
    data__modehome_beepon_corridoron_shtml   0x0804d0a3   Data        4246  fs.o(.constdata)
    data__modehome_corridoron_shtml          0x0804e139   Data        4228  fs.o(.constdata)
    data__STM32F103_ADC_sensor_status_shtml  0x0804f1bd   Data        2794  fs.o(.constdata)
    data__STM32F103_RTC_shtml                0x0804fca7   Data        2324  fs.o(.constdata)
    .constdata                               0x08050760   Section       48  httpd.o(.constdata)
    .constdata                               0x08050790   Section       24  httpd_cgi_ssi.o(.constdata)
    ppcURLs                                  0x08050790   Data          24  httpd_cgi_ssi.o(.constdata)
    .constdata                               0x080507a8   Section      129  ctype_o.o(.constdata)
    .constdata                               0x0805082c   Section        4  ctype_o.o(.constdata)
    table                                    0x0805082c   Data           4  ctype_o.o(.constdata)
    .conststring                             0x08050830   Section      346  ipc.o(.conststring)
    .conststring                             0x0805098c   Section      237  mem.o(.conststring)
    .conststring                             0x08050a7c   Section       66  thread.o(.conststring)
    .conststring                             0x08050ac0   Section      121  touch.o(.conststring)
    .conststring                             0x08050b3c   Section       67  board.o(.conststring)
    .conststring                             0x08050b80   Section      349  cmd.o(.conststring)
    .conststring                             0x08050ce0   Section       72  msh_cmd.o(.conststring)
    .conststring                             0x08050d28   Section      243  finsh_error.o(.conststring)
    .conststring                             0x08050e1c   Section       62  finsh_token.o(.conststring)
    .conststring                             0x08050e5c   Section      140  dhcp.o(.conststring)
    .conststring                             0x08050ee8   Section      117  tcp.o(.conststring)
    .conststring                             0x08050f60   Section       85  tcp_out.o(.conststring)
    .conststring                             0x08050fb8   Section       68  etharp.o(.conststring)
    .conststring                             0x08050ffc   Section      178  httpd.o(.conststring)
    .conststring                             0x080510b0   Section       58  httpd_cgi_ssi.o(.conststring)
    .rodata.name                             0x080510ea   Section       39  mem.o(.rodata.name)
    .rodata.name                             0x08051111   Section      105  pin.o(.rodata.name)
    .rodata.name                             0x0805117a   Section      932  cmd.o(.rodata.name)
    .rodata.name                             0x0805151e   Section       97  msh.o(.rodata.name)
    .rodata.name                             0x0805157f   Section      266  msh_cmd.o(.rodata.name)
    .rti_fn.0                                0x0805168c   Section        4  components.o(.rti_fn.0)
    __tagsym$$used                           0x0805168c   Number         0  components.o(.rti_fn.0)
    .rti_fn.0.end                            0x08051690   Section        4  components.o(.rti_fn.0.end)
    __tagsym$$used                           0x08051690   Number         0  components.o(.rti_fn.0.end)
    .rti_fn.1                                0x08051694   Section        4  drv_gpio.o(.rti_fn.1)
    __tagsym$$used                           0x08051694   Number         0  drv_gpio.o(.rti_fn.1)
    .rti_fn.1                                0x08051698   Section        4  drv_usart.o(.rti_fn.1)
    __tagsym$$used                           0x08051698   Number         0  drv_usart.o(.rti_fn.1)
    .rti_fn.1.end                            0x0805169c   Section        4  components.o(.rti_fn.1.end)
    __tagsym$$used                           0x0805169c   Number         0  components.o(.rti_fn.1.end)
    .rti_fn.4                                0x080516a0   Section        4  libc.o(.rti_fn.4)
    __tagsym$$used                           0x080516a0   Number         0  libc.o(.rti_fn.4)
    .rti_fn.6                                0x080516a4   Section        4  shell.o(.rti_fn.6)
    __tagsym$$used                           0x080516a4   Number         0  shell.o(.rti_fn.6)
    .rti_fn.6.end                            0x080516a8   Section        4  components.o(.rti_fn.6.end)
    __tagsym$$used                           0x080516a8   Number         0  components.o(.rti_fn.6.end)
    FSymTab                                  0x080516ac   Section       12  mem.o(FSymTab)
    __tagsym$$used                           0x080516ac   Number         0  mem.o(FSymTab)
    FSymTab                                  0x080516b8   Section       36  pin.o(FSymTab)
    __tagsym$$used                           0x080516b8   Number         0  pin.o(FSymTab)
    __tagsym$$used                           0x080516c4   Number         0  pin.o(FSymTab)
    __tagsym$$used                           0x080516d0   Number         0  pin.o(FSymTab)
    FSymTab                                  0x080516dc   Section      288  cmd.o(FSymTab)
    __tagsym$$used                           0x080516dc   Number         0  cmd.o(FSymTab)
    __tagsym$$used                           0x080516e8   Number         0  cmd.o(FSymTab)
    __tagsym$$used                           0x080516f4   Number         0  cmd.o(FSymTab)
    __tagsym$$used                           0x08051700   Number         0  cmd.o(FSymTab)
    __tagsym$$used                           0x0805170c   Number         0  cmd.o(FSymTab)
    __tagsym$$used                           0x08051718   Number         0  cmd.o(FSymTab)
    __tagsym$$used                           0x08051724   Number         0  cmd.o(FSymTab)
    __tagsym$$used                           0x08051730   Number         0  cmd.o(FSymTab)
    __tagsym$$used                           0x0805173c   Number         0  cmd.o(FSymTab)
    __tagsym$$used                           0x08051748   Number         0  cmd.o(FSymTab)
    __tagsym$$used                           0x08051754   Number         0  cmd.o(FSymTab)
    __tagsym$$used                           0x08051760   Number         0  cmd.o(FSymTab)
    __tagsym$$used                           0x0805176c   Number         0  cmd.o(FSymTab)
    __tagsym$$used                           0x08051778   Number         0  cmd.o(FSymTab)
    __tagsym$$used                           0x08051784   Number         0  cmd.o(FSymTab)
    __tagsym$$used                           0x08051790   Number         0  cmd.o(FSymTab)
    __tagsym$$used                           0x0805179c   Number         0  cmd.o(FSymTab)
    __tagsym$$used                           0x080517a8   Number         0  cmd.o(FSymTab)
    __tagsym$$used                           0x080517b4   Number         0  cmd.o(FSymTab)
    __tagsym$$used                           0x080517c0   Number         0  cmd.o(FSymTab)
    __tagsym$$used                           0x080517cc   Number         0  cmd.o(FSymTab)
    __tagsym$$used                           0x080517d8   Number         0  cmd.o(FSymTab)
    __tagsym$$used                           0x080517e4   Number         0  cmd.o(FSymTab)
    __tagsym$$used                           0x080517f0   Number         0  cmd.o(FSymTab)
    FSymTab                                  0x080517fc   Section       36  msh.o(FSymTab)
    __tagsym$$used                           0x080517fc   Number         0  msh.o(FSymTab)
    __tagsym$$used                           0x08051808   Number         0  msh.o(FSymTab)
    __tagsym$$used                           0x08051814   Number         0  msh.o(FSymTab)
    FSymTab                                  0x08051820   Section       72  msh_cmd.o(FSymTab)
    __tagsym$$used                           0x08051820   Number         0  msh_cmd.o(FSymTab)
    __tagsym$$used                           0x0805182c   Number         0  msh_cmd.o(FSymTab)
    __tagsym$$used                           0x08051838   Number         0  msh_cmd.o(FSymTab)
    __tagsym$$used                           0x08051844   Number         0  msh_cmd.o(FSymTab)
    __tagsym$$used                           0x08051850   Number         0  msh_cmd.o(FSymTab)
    __tagsym$$used                           0x0805185c   Number         0  msh_cmd.o(FSymTab)
    VSymTab                                  0x08051888   Section       16  cmd.o(VSymTab)
    __tagsym$$used                           0x08051888   Number         0  cmd.o(VSymTab)
    .data                                    0x20000000   Section        4  clock.o(.data)
    rt_tick                                  0x20000000   Data           4  clock.o(.data)
    .data                                    0x20000004   Section        9  irq.o(.data)
    rt_interrupt_enter_hook                  0x20000004   Data           4  irq.o(.data)
    rt_interrupt_leave_hook                  0x20000008   Data           4  irq.o(.data)
    .data                                    0x20000010   Section       12  kservice.o(.data)
    __rt_errno                               0x20000010   Data           4  kservice.o(.data)
    _console_device                          0x20000014   Data           4  kservice.o(.data)
    .data                                    0x2000001c   Section       32  mem.o(.data)
    rt_malloc_hook                           0x2000001c   Data           4  mem.o(.data)
    rt_free_hook                             0x20000020   Data           4  mem.o(.data)
    heap_ptr                                 0x20000024   Data           4  mem.o(.data)
    heap_end                                 0x20000028   Data           4  mem.o(.data)
    lfree                                    0x2000002c   Data           4  mem.o(.data)
    mem_size_aligned                         0x20000030   Data           4  mem.o(.data)
    used_mem                                 0x20000034   Data           4  mem.o(.data)
    max_mem                                  0x20000038   Data           4  mem.o(.data)
    .data                                    0x2000003c   Section        8  mempool.o(.data)
    rt_mp_alloc_hook                         0x2000003c   Data           4  mempool.o(.data)
    rt_mp_free_hook                          0x20000040   Data           4  mempool.o(.data)
    .data                                    0x20000044   Section      180  object.o(.data)
    rt_object_container                      0x20000044   Data         160  object.o(.data)
    rt_object_attach_hook                    0x200000e4   Data           4  object.o(.data)
    rt_object_detach_hook                    0x200000e8   Data           4  object.o(.data)
    .data                                    0x200000f8   Section       28  scheduler.o(.data)
    rt_scheduler_lock_nest                   0x200000f8   Data           2  scheduler.o(.data)
    rt_scheduler_hook                        0x20000110   Data           4  scheduler.o(.data)
    .data                                    0x20000114   Section        4  signal.o(.data)
    _rt_siginfo_pool                         0x20000114   Data           4  signal.o(.data)
    .data                                    0x20000118   Section       12  thread.o(.data)
    rt_thread_suspend_hook                   0x20000118   Data           4  thread.o(.data)
    rt_thread_resume_hook                    0x2000011c   Data           4  thread.o(.data)
    rt_thread_inited_hook                    0x20000120   Data           4  thread.o(.data)
    .data                                    0x20000124   Section       28  timer.o(.data)
    rt_timer_list                            0x20000124   Data           8  timer.o(.data)
    rt_soft_timer_list                       0x2000012c   Data           8  timer.o(.data)
    rt_timer_enter_hook                      0x20000134   Data           4  timer.o(.data)
    rt_timer_exit_hook                       0x20000138   Data           4  timer.o(.data)
    random_nr                                0x2000013c   Data           4  timer.o(.data)
    .data                                    0x20000140   Section       16  cpuport.o(.data)
    rt_exception_hook                        0x2000014c   Data           4  cpuport.o(.data)
    .data                                    0x20000150   Section       12  bsp_gsm.o(.data)
    prt                                      0x20000154   Data           4  bsp_gsm.o(.data)
    prt_backup                               0x20000158   Data           4  bsp_gsm.o(.data)
    .data                                    0x2000015c   Section        6  bsp_led.o(.data)
    cnt                                      0x2000015c   Data           4  bsp_led.o(.data)
    count                                    0x20000160   Data           2  bsp_led.o(.data)
    .data                                    0x20000162   Section        4  delay.o(.data)
    fac_us                                   0x20000162   Data           1  delay.o(.data)
    fac_ms                                   0x20000164   Data           2  delay.o(.data)
    .data                                    0x20000166   Section        1  ft5206.o(.data)
    t                                        0x20000166   Data           1  ft5206.o(.data)
    .data                                    0x20000167   Section        1  gt9147.o(.data)
    t                                        0x20000167   Data           1  gt9147.o(.data)
    .data                                    0x20000168   Section        8  lcd.o(.data)
    .data                                    0x20000170   Section       52  main.o(.data)
    pt                                       0x2000019c   Data           4  main.o(.data)
    point                                    0x200001a0   Data           4  main.o(.data)
    .data                                    0x200001a4   Section        1  ott2001a.o(.data)
    t                                        0x200001a4   Data           1  ott2001a.o(.data)
    .data                                    0x200001a8   Section        9  remote.o(.data)
    .data                                    0x200001b2   Section       40  rtc.o(.data)
    daycnt                                   0x200001c2   Data           2  rtc.o(.data)
    hour_min_sec                             0x200001c4   Data           8  rtc.o(.data)
    set_hour_min_sec                         0x200001cc   Data           8  rtc.o(.data)
    time_flag_flash                          0x200001d4   Data           1  rtc.o(.data)
    key_value                                0x200001d5   Data           1  rtc.o(.data)
    status                                   0x200001d6   Data           1  rtc.o(.data)
    set_value                                0x200001d8   Data           2  rtc.o(.data)
    .data                                    0x200001dc   Section       54  touch.o(.data)
    .data                                    0x20000212   Section        6  usart.o(.data)
    .data                                    0x20000218   Section      192  drv_gpio.o(.data)
    .data                                    0x200002d8   Section       68  drv_usart.o(.data)
    .data                                    0x2000031c   Section        4  system_stm32f1xx.o(.data)
    .data                                    0x20000320   Section        1  stm32f1xx_hal_spi_ex.o(.data)
    .data                                    0x20000324   Section        9  stm32f1xx_hal.o(.data)
    .data                                    0x20000330   Section        8  shell.o(.data)
    finsh_prompt_custom                      0x20000334   Data           4  shell.o(.data)
    .data                                    0x20000338   Section       16  symbol.o(.data)
    .data                                    0x20000348   Section        4  cmd.o(.data)
    dummy                                    0x20000348   Data           4  cmd.o(.data)
    .data                                    0x2000034c   Section        4  msh.o(.data)
    __msh_state                              0x2000034c   Data           4  msh.o(.data)
    .data                                    0x20000350   Section        8  finsh_compiler.o(.data)
    .data                                    0x20000358   Section       64  finsh_error.o(.data)
    finsh_error_string_table                 0x2000035c   Data          60  finsh_error.o(.data)
    .data                                    0x20000398   Section        8  finsh_heap.o(.data)
    free_list                                0x20000398   Data           4  finsh_heap.o(.data)
    allocate_list                            0x2000039c   Data           4  finsh_heap.o(.data)
    .data                                    0x200003a0   Section        4  finsh_var.o(.data)
    .data                                    0x200003a4   Section       12  finsh_vm.o(.data)
    .data                                    0x200003b0   Section        8  sockets.o(.data)
    select_cb_list                           0x200003b0   Data           4  sockets.o(.data)
    select_cb_ctr                            0x200003b4   Data           4  sockets.o(.data)
    .data                                    0x200003b8   Section       12  tcpip.o(.data)
    tcpip_init_done                          0x200003b8   Data           4  tcpip.o(.data)
    tcpip_init_done_arg                      0x200003bc   Data           4  tcpip.o(.data)
    mbox                                     0x200003c0   Data           4  tcpip.o(.data)
    .data                                    0x200003c4   Section        6  sys_arch.o(.data)
    counter                                  0x200003c4   Data           2  sys_arch.o(.data)
    counter                                  0x200003c6   Data           2  sys_arch.o(.data)
    counter                                  0x200003c8   Data           2  sys_arch.o(.data)
    .data                                    0x200003cc   Section        4  dhcp.o(.data)
    xid                                      0x200003cc   Data           4  dhcp.o(.data)
    .data                                    0x200003d0   Section       20  dns.o(.data)
    dns_pcb                                  0x200003d0   Data           4  dns.o(.data)
    dns_seqno                                0x200003d4   Data           1  dns.o(.data)
    dns_servers                              0x200003d8   Data           8  dns.o(.data)
    dns_payload                              0x200003e0   Data           4  dns.o(.data)
    .data                                    0x200003e4   Section        9  netif.o(.data)
    netif_num                                0x200003ec   Data           1  netif.o(.data)
    .data                                    0x200003ed   Section        1  pbuf.o(.data)
    .data                                    0x200003f0   Section        4  raw.o(.data)
    raw_pcbs                                 0x200003f0   Data           4  raw.o(.data)
    .data                                    0x200003f4   Section       36  tcp.o(.data)
    tcp_port                                 0x200003f4   Data           2  tcp.o(.data)
    tcp_timer                                0x20000411   Data           1  tcp.o(.data)
    tcp_timer_ctr                            0x20000412   Data           1  tcp.o(.data)
    iss                                      0x20000414   Data           4  tcp.o(.data)
    .data                                    0x20000418   Section       32  tcp_in.o(.data)
    tcphdr                                   0x20000418   Data           4  tcp_in.o(.data)
    iphdr                                    0x2000041c   Data           4  tcp_in.o(.data)
    seqno                                    0x20000420   Data           4  tcp_in.o(.data)
    ackno                                    0x20000424   Data           4  tcp_in.o(.data)
    flags                                    0x20000428   Data           1  tcp_in.o(.data)
    tcplen                                   0x2000042a   Data           2  tcp_in.o(.data)
    recv_flags                               0x2000042c   Data           1  tcp_in.o(.data)
    recv_data                                0x20000430   Data           4  tcp_in.o(.data)
    .data                                    0x20000438   Section        8  timers.o(.data)
    next_timeout                             0x20000438   Data           4  timers.o(.data)
    tcpip_tcp_timer_active                   0x2000043c   Data           4  timers.o(.data)
    .data                                    0x20000440   Section        8  udp.o(.data)
    udp_port                                 0x20000440   Data           2  udp.o(.data)
    .data                                    0x20000448   Section       12  igmp.o(.data)
    igmp_group_list                          0x20000448   Data           4  igmp.o(.data)
    allsystems                               0x2000044c   Data           4  igmp.o(.data)
    allrouters                               0x20000450   Data           4  igmp.o(.data)
    .data                                    0x20000454   Section       18  ip.o(.data)
    ip_id                                    0x20000464   Data           2  ip.o(.data)
    .data                                    0x20000466   Section        1  etharp.o(.data)
    etharp_cached_entry                      0x20000466   Data           1  etharp.o(.data)
    .data                                    0x20000468   Section        8  lwip_comm.o(.data)
    .data                                    0x20000470   Section       36  httpd.o(.data)
    .data                                    0x20000494   Section       28  httpd_cgi_ssi.o(.data)
    ppcTAGs                                  0x20000494   Data          28  httpd_cgi_ssi.o(.data)
    .data                                    0x200004b0   Section        4  rand.o(.data)
    _rand_state                              0x200004b0   Data           4  rand.o(.data)
    .data                                    0x200004b4   Section        4  errno.o(.data)
    _errno                                   0x200004b4   Data           4  errno.o(.data)
    .data                                    0x200004b8   Section        4  stdout.o(.data)
    .bss                                     0x200004bc   Section      452  idle.o(.bss)
    idle                                     0x200004bc   Data         180  idle.o(.bss)
    rt_thread_stack                          0x20000570   Data         256  idle.o(.bss)
    idle_hook_list                           0x20000670   Data          16  idle.o(.bss)
    .bss                                     0x20000680   Section      128  kservice.o(.bss)
    rt_log_buf                               0x20000680   Data         128  kservice.o(.bss)
    .bss                                     0x20000700   Section       48  mem.o(.bss)
    heap_sem                                 0x20000700   Data          48  mem.o(.bss)
    .bss                                     0x20000730   Section      256  scheduler.o(.bss)
    .bss                                     0x20000830   Section      692  timer.o(.bss)
    timer_thread                             0x20000830   Data         180  timer.o(.bss)
    timer_thread_stack                       0x200008e4   Data         512  timer.o(.bss)
    .bss                                     0x20000ae4   Section      144  bsp_adc.o(.bss)
    .bss                                     0x20000b74   Section       64  bsp_timer.o(.bss)
    .bss                                     0x20000bb4   Section       86  dm9000.o(.bss)
    .bss                                     0x20000c0c   Section       82  lcd.o(.bss)
    .bss                                     0x20000c60   Section     7256  main.o(.bss)
    Touch_Thread                             0x20000c60   Data         180  main.o(.bss)
    Light_Thread                             0x20000d14   Data         180  main.o(.bss)
    Security_Thread                          0x20000dc8   Data         180  main.o(.bss)
    IRDA_Thread                              0x20000e7c   Data         180  main.o(.bss)
    GSM_Thread                               0x20000f30   Data         180  main.o(.bss)
    GSM_Thread_Read                          0x20000fe4   Data         180  main.o(.bss)
    GSM_Thread_Send                          0x20001098   Data         180  main.o(.bss)
    Get_Sensor_Status_Thread                 0x2000114c   Data         180  main.o(.bss)
    NRF2401_Thread                           0x20001200   Data         180  main.o(.bss)
    GSM_mq_send                              0x200012b4   Data          64  main.o(.bss)
    mq_pool                                  0x200012f4   Data          16  main.o(.bss)
    IRDA_NRF2401_send                        0x20001304   Data          64  main.o(.bss)
    IRDA_NRF2401_pool                        0x20001344   Data          16  main.o(.bss)
    NRF2401_Thread_stack                     0x20001354   Data         512  main.o(.bss)
    GSM_send_thread_stack                    0x20001554   Data        1024  main.o(.bss)
    GSM_read_thread_stack                    0x20001954   Data        1024  main.o(.bss)
    GSM_thread_stack                         0x20001d54   Data         256  main.o(.bss)
    IRDA_thread_stack                        0x20001e54   Data         256  main.o(.bss)
    Security_thread_stack                    0x20001f54   Data         512  main.o(.bss)
    touch_thread_stack                       0x20002154   Data         512  main.o(.bss)
    Light_thread_stack                       0x20002354   Data         356  main.o(.bss)
    Get_Sensor_Status_Thread_stack           0x200024b8   Data        1024  main.o(.bss)
    .bss                                     0x200028b8   Section       64  remote.o(.bss)
    .bss                                     0x200028f8   Section       50  rtc.o(.bss)
    year_mon_dat                             0x20002916   Data          10  rtc.o(.bss)
    set_year_mon_dat                         0x20002920   Data          10  rtc.o(.bss)
    .bss                                     0x2000292c   Section       88  spi.o(.bss)
    .bss                                     0x20002984   Section     2176  usart.o(.bss)
    .bss                                     0x20003204   Section      100  drv_usart.o(.bss)
    .bss                                     0x20003268   Section       84  pin.o(.bss)
    _hw_pin                                  0x20003268   Data          84  pin.o(.bss)
    .bss                                     0x200032bc   Section      129  shell.o(.bss)
    finsh_prompt                             0x200032bc   Data         129  shell.o(.bss)
    .bss                                     0x20003340   Section      128  finsh_heap.o(.bss)
    .bss                                     0x200033c0   Section      320  finsh_node.o(.bss)
    .bss                                     0x20003500   Section      192  finsh_var.o(.bss)
    .bss                                     0x200035c0   Section      384  finsh_vm.o(.bss)
    .bss                                     0x20003740   Section      192  sockets.o(.bss)
    sockets                                  0x20003740   Data         192  sockets.o(.bss)
    .bss                                     0x20003800   Section       50  dhcp.o(.bss)
    .bss                                     0x20003834   Section     1635  dns.o(.bss)
    dns_table                                0x20003834   Data        1120  dns.o(.bss)
    dns_payload_buffer                       0x20003c94   Data         515  dns.o(.bss)
    .bss                                     0x20003e98   Section    28163  memp.o(.bss)
    memp_tab                                 0x20003e98   Data          60  memp.o(.bss)
    memp_memory                              0x20003ed4   Data       28103  memp.o(.bss)
    .bss                                     0x2000ac9c   Section       16  tcp_in.o(.bss)
    inseg                                    0x2000ac9c   Data          16  tcp_in.o(.bss)
    .bss                                     0x2000acac   Section       16  ip_addr.o(.bss)
    str                                      0x2000acac   Data          16  ip_addr.o(.bss)
    .bss                                     0x2000acbc   Section      200  etharp.o(.bss)
    arp_table                                0x2000acbc   Data         200  etharp.o(.bss)
    .bss                                     0x2000ad84   Section     1468  lwip_comm.o(.bss)
    LWIP_DHCP_Thread                         0x2000ad84   Data         180  lwip_comm.o(.bss)
    LWIP_DM9000_INPUT_Thread                 0x2000ae38   Data         180  lwip_comm.o(.bss)
    LWIP_DHCP_TASK_STK                       0x2000aeec   Data         512  lwip_comm.o(.bss)
    LWIP_DM9000_INPUT_TASK_STK               0x2000b0ec   Data         512  lwip_comm.o(.bss)
    .bss                                     0x2000b340   Section      240  fs.o(.bss)
    .bss                                     0x2000b430   Section     1024  httpd.o(.bss)
    httpd_req_buf                            0x2000b430   Data        1024  httpd.o(.bss)
    STACK                                    0x2000b830   Section     1024  startup_stm32f103xe.o(STACK)

    Global Symbols

    Symbol Name                              Value     Ov Type        Size  Object(Section)

    BuildAttributes$$THM_ISAv4$P$D$K$B$S$PE$A:L22UL41UL21$X:L11$S22US41US21$IEEE1$IW$USESV6$~STKCKD$USESV7$~SHL$OTIME$ROPI$IEEEJ$EBA8$MICROLIB$REQ8$PRES8$EABIv2 0x00000000   Number         0  anon$$obj.o ABSOLUTE
    __ARM_use_no_argv                        0x00000000   Number         0  main.o ABSOLUTE
    __use_no_errno                           0x00000000   Number         0  useno.o ABSOLUTE
    __use_no_exception_handling              0x00000000   Number         0  useno.o ABSOLUTE
    __use_no_fp                              0x00000000   Number         0  useno.o ABSOLUTE
    __use_no_heap                            0x00000000   Number         0  useno.o ABSOLUTE
    __use_no_heap_region                     0x00000000   Number         0  useno.o ABSOLUTE
    __use_no_semihosting                     0x00000000   Number         0  useno.o ABSOLUTE
    __use_no_semihosting_swi                 0x00000000   Number         0  useno.o ABSOLUTE
    __use_no_signal_handling                 0x00000000   Number         0  useno.o ABSOLUTE
    _printf_a                                0x00000000   Number         0  stubs.o ABSOLUTE
    _printf_c                                0x00000000   Number         0  stubs.o ABSOLUTE
    _printf_charcount                        0x00000000   Number         0  stubs.o ABSOLUTE
    _printf_d                                0x00000000   Number         0  stubs.o ABSOLUTE
    _printf_e                                0x00000000   Number         0  stubs.o ABSOLUTE
    _printf_f                                0x00000000   Number         0  stubs.o ABSOLUTE
    _printf_flags                            0x00000000   Number         0  stubs.o ABSOLUTE
    _printf_fp_dec                           0x00000000   Number         0  stubs.o ABSOLUTE
    _printf_fp_hex                           0x00000000   Number         0  stubs.o ABSOLUTE
    _printf_g                                0x00000000   Number         0  stubs.o ABSOLUTE
    _printf_i                                0x00000000   Number         0  stubs.o ABSOLUTE
    _printf_int_dec                          0x00000000   Number         0  stubs.o ABSOLUTE
    _printf_l                                0x00000000   Number         0  stubs.o ABSOLUTE
    _printf_lc                               0x00000000   Number         0  stubs.o ABSOLUTE
    _printf_ll                               0x00000000   Number         0  stubs.o ABSOLUTE
    _printf_lld                              0x00000000   Number         0  stubs.o ABSOLUTE
    _printf_lli                              0x00000000   Number         0  stubs.o ABSOLUTE
    _printf_llo                              0x00000000   Number         0  stubs.o ABSOLUTE
    _printf_llu                              0x00000000   Number         0  stubs.o ABSOLUTE
    _printf_llx                              0x00000000   Number         0  stubs.o ABSOLUTE
    _printf_longlong_dec                     0x00000000   Number         0  stubs.o ABSOLUTE
    _printf_longlong_hex                     0x00000000   Number         0  stubs.o ABSOLUTE
    _printf_longlong_oct                     0x00000000   Number         0  stubs.o ABSOLUTE
    _printf_ls                               0x00000000   Number         0  stubs.o ABSOLUTE
    _printf_mbtowc                           0x00000000   Number         0  stubs.o ABSOLUTE
    _printf_n                                0x00000000   Number         0  stubs.o ABSOLUTE
    _printf_o                                0x00000000   Number         0  stubs.o ABSOLUTE
    _printf_p                                0x00000000   Number         0  stubs.o ABSOLUTE
    _printf_percent                          0x00000000   Number         0  stubs.o ABSOLUTE
    _printf_pre_padding                      0x00000000   Number         0  stubs.o ABSOLUTE
    _printf_return_value                     0x00000000   Number         0  stubs.o ABSOLUTE
    _printf_s                                0x00000000   Number         0  stubs.o ABSOLUTE
    _printf_sizespec                         0x00000000   Number         0  stubs.o ABSOLUTE
    _printf_str                              0x00000000   Number         0  stubs.o ABSOLUTE
    _printf_truncate_signed                  0x00000000   Number         0  stubs.o ABSOLUTE
    _printf_truncate_unsigned                0x00000000   Number         0  stubs.o ABSOLUTE
    _printf_u                                0x00000000   Number         0  stubs.o ABSOLUTE
    _printf_wc                               0x00000000   Number         0  stubs.o ABSOLUTE
    _printf_wctomb                           0x00000000   Number         0  stubs.o ABSOLUTE
    _printf_widthprec                        0x00000000   Number         0  stubs.o ABSOLUTE
    _printf_x                                0x00000000   Number         0  stubs.o ABSOLUTE
    __cpp_initialize__aeabi_                  - Undefined Weak Reference
    __cxa_finalize                            - Undefined Weak Reference
    _clock_init                               - Undefined Weak Reference
    _microlib_exit                            - Undefined Weak Reference
    __Vectors_Size                           0x00000130   Number         0  startup_stm32f103xe.o ABSOLUTE
    __Vectors                                0x08000000   Data           4  startup_stm32f103xe.o(RESET)
    __Vectors_End                            0x08000130   Data           0  startup_stm32f103xe.o(RESET)
    __main                                   0x08000131   Thumb Code     0  entry.o(.ARM.Collect$$$$00000000)
    _main_stk                                0x08000131   Thumb Code     0  entry2.o(.ARM.Collect$$$$00000001)
    _main_scatterload                        0x08000135   Thumb Code     0  entry5.o(.ARM.Collect$$$$00000004)
    __main_after_scatterload                 0x08000139   Thumb Code     0  entry5.o(.ARM.Collect$$$$00000004)
    _main_clock                              0x08000139   Thumb Code     0  entry7b.o(.ARM.Collect$$$$00000008)
    _main_cpp_init                           0x08000139   Thumb Code     0  entry8b.o(.ARM.Collect$$$$0000000A)
    _main_init                               0x08000139   Thumb Code     0  entry9a.o(.ARM.Collect$$$$0000000B)
    __rt_final_cpp                           0x08000141   Thumb Code     0  entry10a.o(.ARM.Collect$$$$0000000D)
    __rt_final_exit                          0x08000141   Thumb Code     0  entry11a.o(.ARM.Collect$$$$0000000F)
    rt_system_tick_init                      0x08000145   Thumb Code     2  clock.o(.text)
    rt_tick_get                              0x08000147   Thumb Code     6  clock.o(.text)
    rt_tick_set                              0x0800014d   Thumb Code    22  clock.o(.text)
    rt_tick_increase                         0x08000163   Thumb Code    42  clock.o(.text)
    rt_tick_from_millisecond                 0x0800018d   Thumb Code    32  clock.o(.text)
    rt_components_board_init                 0x080001c1   Thumb Code    20  components.o(.text)
    rt_components_init                       0x080001d5   Thumb Code    20  components.o(.text)
    main_thread_entry                        0x080001e9   Thumb Code    14  components.o(.text)
    rt_application_init                      0x080001f7   Thumb Code    48  components.o(.text)
    rtthread_startup                         0x08000227   Thumb Code    46  components.o(.text)
    main                                     0x08000255   Thumb Code    14  components.o(.text)
    rt_device_find                           0x0800028d   Thumb Code    94  device.o(.text)
    rt_device_register                       0x080002eb   Thumb Code    54  device.o(.text)
    rt_device_unregister                     0x08000321   Thumb Code    64  device.o(.text)
    rt_device_init_all                       0x08000361   Thumb Code     4  device.o(.text)
    rt_device_create                         0x08000365   Thumb Code    48  device.o(.text)
    rt_device_destroy                        0x08000395   Thumb Code    68  device.o(.text)
    rt_device_init                           0x080003d9   Thumb Code    66  device.o(.text)
    rt_device_open                           0x0800041b   Thumb Code   180  device.o(.text)
    rt_device_close                          0x080004cf   Thumb Code    98  device.o(.text)
    rt_device_read                           0x08000531   Thumb Code   100  device.o(.text)
    rt_device_write                          0x08000595   Thumb Code   100  device.o(.text)
    rt_device_control                        0x080005f9   Thumb Code    66  device.o(.text)
    rt_device_set_rx_indicate                0x0800063b   Thumb Code    48  device.o(.text)
    rt_device_set_tx_complete                0x0800066b   Thumb Code   362  device.o(.text)
    rt_thread_idle_sethook                   0x080007d5   Thumb Code    58  idle.o(.text)
    rt_thread_idle_delhook                   0x0800080f   Thumb Code    62  idle.o(.text)
    rt_thread_idle_excute                    0x0800084d   Thumb Code   178  idle.o(.text)
    rt_thread_idle_init                      0x08000923   Thumb Code    38  idle.o(.text)
    rt_thread_idle_gethandler                0x08000949   Thumb Code     4  idle.o(.text)
    rt_sem_init                              0x08000a55   Thumb Code    50  ipc.o(.text)
    rt_sem_detach                            0x08000a87   Thumb Code    72  ipc.o(.text)
    rt_sem_create                            0x08000acf   Thumb Code    84  ipc.o(.text)
    rt_sem_delete                            0x08000b23   Thumb Code   120  ipc.o(.text)
    rt_sem_take                              0x08000b9b   Thumb Code   288  ipc.o(.text)
    rt_sem_trytake                           0x08000cbb   Thumb Code    14  ipc.o(.text)
    rt_sem_release                           0x08000cc9   Thumb Code   116  ipc.o(.text)
    rt_sem_control                           0x08000d3d   Thumb Code    90  ipc.o(.text)
    rt_mutex_init                            0x08000d97   Thumb Code    62  ipc.o(.text)
    rt_mutex_detach                          0x08000dd5   Thumb Code    78  ipc.o(.text)
    rt_mutex_create                          0x08000e23   Thumb Code   460  ipc.o(.text)
    rt_mutex_delete                          0x08000fef   Thumb Code   126  ipc.o(.text)
    rt_mutex_take                            0x0800106d   Thumb Code   382  ipc.o(.text)
    rt_mutex_release                         0x080011eb   Thumb Code   324  ipc.o(.text)
    rt_mutex_control                         0x0800132f   Thumb Code    52  ipc.o(.text)
    rt_event_init                            0x08001363   Thumb Code    46  ipc.o(.text)
    rt_event_detach                          0x08001391   Thumb Code   260  ipc.o(.text)
    rt_event_create                          0x08001495   Thumb Code    88  ipc.o(.text)
    rt_event_delete                          0x080014ed   Thumb Code   126  ipc.o(.text)
    rt_event_send                            0x0800156b   Thumb Code   234  ipc.o(.text)
    rt_event_recv                            0x08001655   Thumb Code   402  ipc.o(.text)
    rt_event_control                         0x080017e7   Thumb Code    92  ipc.o(.text)
    rt_mb_init                               0x08001843   Thumb Code   198  ipc.o(.text)
    rt_mb_detach                             0x08001909   Thumb Code    88  ipc.o(.text)
    rt_mb_create                             0x08001961   Thumb Code   128  ipc.o(.text)
    rt_mb_delete                             0x080019e1   Thumb Code   140  ipc.o(.text)
    rt_mb_send_wait                          0x08001a6d   Thumb Code   400  ipc.o(.text)
    rt_mb_send                               0x08001bfd   Thumb Code    18  ipc.o(.text)
    rt_mb_recv                               0x08001c0f   Thumb Code   578  ipc.o(.text)
    rt_mb_control                            0x08001e51   Thumb Code   104  ipc.o(.text)
    rt_mq_init                               0x08001eb9   Thumb Code   118  ipc.o(.text)
    rt_mq_detach                             0x08001f2f   Thumb Code    78  ipc.o(.text)
    rt_mq_delete                             0x08001f7d   Thumb Code   126  ipc.o(.text)
    rt_mq_create                             0x08001ffb   Thumb Code   170  ipc.o(.text)
    rt_mq_send                               0x080020a5   Thumb Code   222  ipc.o(.text)
    rt_mq_urgent                             0x08002183   Thumb Code   424  ipc.o(.text)
    rt_mq_recv                               0x0800232b   Thumb Code   458  ipc.o(.text)
    rt_mq_control                            0x080024f5   Thumb Code   120  ipc.o(.text)
    rt_interrupt_enter_sethook               0x080025c5   Thumb Code     6  irq.o(.text)
    rt_interrupt_leave_sethook               0x080025cb   Thumb Code     6  irq.o(.text)
    rt_interrupt_enter                       0x080025d1   Thumb Code    46  irq.o(.text)
    rt_interrupt_leave                       0x080025ff   Thumb Code    46  irq.o(.text)
    rt_interrupt_get_nest                    0x0800262d   Thumb Code     6  irq.o(.text)
    rt_get_errno                             0x08002641   Thumb Code    32  kservice.o(.text)
    rt_set_errno                             0x08002661   Thumb Code    36  kservice.o(.text)
    _rt_errno                                0x08002685   Thumb Code    30  kservice.o(.text)
    rt_memset                                0x080026a3   Thumb Code    72  kservice.o(.text)
    rt_memcpy                                0x080026eb   Thumb Code   124  kservice.o(.text)
    rt_memmove                               0x08002767   Thumb Code    66  kservice.o(.text)
    rt_memcmp                                0x080027a9   Thumb Code    38  kservice.o(.text)
    rt_strlen                                0x080027cf   Thumb Code    18  kservice.o(.text)
    rt_strstr                                0x080027e1   Thumb Code    58  kservice.o(.text)
    rt_strcasecmp                            0x0800281b   Thumb Code    48  kservice.o(.text)
    rt_strncpy                               0x0800284b   Thumb Code    52  kservice.o(.text)
    rt_strncmp                               0x0800287f   Thumb Code    40  kservice.o(.text)
    rt_strcmp                                0x080028a7   Thumb Code    28  kservice.o(.text)
    rt_strnlen                               0x080028c3   Thumb Code    24  kservice.o(.text)
    rt_strdup                                0x080028db   Thumb Code    40  kservice.o(.text)
    strdup                                   0x080028db   Thumb Code     0  kservice.o(.text)
    rt_hw_console_output                     0x08002903   Thumb Code     2  kservice.o(.text)
    rt_vsnprintf                             0x08002ac9   Thumb Code   800  kservice.o(.text)
    rt_kprintf                               0x08002de9   Thumb Code    96  kservice.o(.text)
    rt_show_version                          0x08002e49   Thumb Code    38  kservice.o(.text)
    rt_snprintf                              0x08002e6f   Thumb Code    38  kservice.o(.text)
    rt_vsprintf                              0x08002e95   Thumb Code    22  kservice.o(.text)
    rt_sprintf                               0x08002eab   Thumb Code    34  kservice.o(.text)
    rt_console_get_device                    0x08002ecd   Thumb Code     6  kservice.o(.text)
    rt_console_set_device                    0x08002ed3   Thumb Code    48  kservice.o(.text)
    rt_kputs                                 0x08002f03   Thumb Code    78  kservice.o(.text)
    rt_malloc_align                          0x08002f51   Thumb Code    66  kservice.o(.text)
    rt_free_align                            0x08002f93   Thumb Code    16  kservice.o(.text)
    __rt_ffs                                 0x08002fa3   Thumb Code    70  kservice.o(.text)
    rt_assert_set_hook                       0x08002fe9   Thumb Code     6  kservice.o(.text)
    rt_assert_handler                        0x08002fef   Thumb Code    56  kservice.o(.text)
    rt_malloc_sethook                        0x08003101   Thumb Code     6  mem.o(.text)
    rt_free_sethook                          0x08003107   Thumb Code     6  mem.o(.text)
    rt_system_heap_init                      0x080031ad   Thumb Code   204  mem.o(.text)
    rt_malloc                                0x08003279   Thumb Code   522  mem.o(.text)
    rt_free                                  0x08003483   Thumb Code   688  mem.o(.text)
    rt_realloc                               0x08003733   Thumb Code   324  mem.o(.text)
    rt_calloc                                0x08003877   Thumb Code    84  mem.o(.text)
    rt_memory_info                           0x080038cb   Thumb Code    26  mem.o(.text)
    list_mem                                 0x080038e5   Thumb Code    34  mem.o(.text)
    rt_mp_alloc_sethook                      0x080039f5   Thumb Code     6  mempool.o(.text)
    rt_mp_free_sethook                       0x080039fb   Thumb Code     6  mempool.o(.text)
    rt_mp_init                               0x08003a01   Thumb Code   128  mempool.o(.text)
    rt_mp_detach                             0x08003a81   Thumb Code   114  mempool.o(.text)
    rt_mp_create                             0x08003af3   Thumb Code   174  mempool.o(.text)
    rt_mp_delete                             0x08003ba1   Thumb Code   172  mempool.o(.text)
    rt_mp_alloc                              0x08003c4d   Thumb Code   278  mempool.o(.text)
    rt_mp_free                               0x08003d63   Thumb Code    98  mempool.o(.text)
    rt_object_attach_sethook                 0x08003f05   Thumb Code     6  object.o(.text)
    rt_object_detach_sethook                 0x08003f0b   Thumb Code     6  object.o(.text)
    rt_object_trytake_sethook                0x08003f11   Thumb Code     6  object.o(.text)
    rt_object_take_sethook                   0x08003f17   Thumb Code     6  object.o(.text)
    rt_object_put_sethook                    0x08003f1d   Thumb Code     6  object.o(.text)
    rt_system_object_init                    0x08003f23   Thumb Code     2  object.o(.text)
    rt_object_get_information                0x08003f25   Thumb Code    36  object.o(.text)
    rt_object_init                           0x08003f49   Thumb Code    90  object.o(.text)
    rt_object_detach                         0x08003fa3   Thumb Code    62  object.o(.text)
    rt_object_allocate                       0x08003fe1   Thumb Code   158  object.o(.text)
    rt_object_delete                         0x0800407f   Thumb Code    88  object.o(.text)
    rt_object_is_systemobject                0x080040d7   Thumb Code    34  object.o(.text)
    rt_object_get_type                       0x080040f9   Thumb Code    26  object.o(.text)
    rt_object_find                           0x08004113   Thumb Code   142  object.o(.text)
    rt_scheduler_sethook                     0x08004259   Thumb Code     6  scheduler.o(.text)
    rt_system_scheduler_init                 0x080042b9   Thumb Code    56  scheduler.o(.text)
    rt_system_scheduler_start                0x080042f1   Thumb Code    36  scheduler.o(.text)
    rt_schedule                              0x08004315   Thumb Code   160  scheduler.o(.text)
    rt_schedule_insert_thread                0x080043b5   Thumb Code    90  scheduler.o(.text)
    rt_schedule_remove_thread                0x0800440f   Thumb Code    94  scheduler.o(.text)
    rt_enter_critical                        0x0800446d   Thumb Code    28  scheduler.o(.text)
    rt_exit_critical                         0x08004489   Thumb Code    54  scheduler.o(.text)
    rt_critical_level                        0x080044bf   Thumb Code     8  scheduler.o(.text)
    rt_thread_handle_sig                     0x08004567   Thumb Code   156  signal.o(.text)
    rt_thread_alloc_sig                      0x080046d7   Thumb Code    62  signal.o(.text)
    rt_signal_install                        0x08004715   Thumb Code    98  signal.o(.text)
    rt_signal_mask                           0x08004777   Thumb Code    34  signal.o(.text)
    rt_signal_unmask                         0x08004799   Thumb Code    56  signal.o(.text)
    rt_signal_wait                           0x080047d1   Thumb Code   346  signal.o(.text)
    rt_thread_free_sig                       0x0800492b   Thumb Code    66  signal.o(.text)
    rt_thread_kill                           0x0800496d   Thumb Code   236  signal.o(.text)
    rt_system_signal_init                    0x08004a59   Thumb Code    38  signal.o(.text)
    rt_thread_suspend_sethook                0x08004b4d   Thumb Code     6  thread.o(.text)
    rt_thread_resume_sethook                 0x08004b53   Thumb Code     6  thread.o(.text)
    rt_thread_inited_sethook                 0x08004b59   Thumb Code     6  thread.o(.text)
    rt_thread_exit                           0x08004b5f   Thumb Code    78  thread.o(.text)
    rt_thread_timeout                        0x08004bad   Thumb Code    90  thread.o(.text)
    rt_thread_init                           0x08004cb3   Thumb Code    74  thread.o(.text)
    rt_thread_self                           0x08004cfd   Thumb Code     6  thread.o(.text)
    rt_thread_resume                         0x08004d03   Thumb Code   120  thread.o(.text)
    rt_thread_startup                        0x08004d7b   Thumb Code   108  thread.o(.text)
    rt_thread_detach                         0x08004de7   Thumb Code   126  thread.o(.text)
    rt_thread_create                         0x08004e65   Thumb Code    80  thread.o(.text)
    rt_thread_delete                         0x08004eb5   Thumb Code   114  thread.o(.text)
    rt_thread_yield                          0x08004f27   Thumb Code   454  thread.o(.text)
    rt_thread_suspend                        0x080050ed   Thumb Code   130  thread.o(.text)
    rt_thread_sleep                          0x0800516f   Thumb Code    98  thread.o(.text)
    rt_thread_delay                          0x080051d1   Thumb Code    12  thread.o(.text)
    rt_thread_mdelay                         0x080051dd   Thumb Code    20  thread.o(.text)
    rt_thread_control                        0x080051f1   Thumb Code   154  thread.o(.text)
    rt_thread_find                           0x0800528b   Thumb Code    96  thread.o(.text)
    rt_timer_enter_sethook                   0x08005333   Thumb Code     6  timer.o(.text)
    rt_timer_exit_sethook                    0x08005339   Thumb Code     6  timer.o(.text)
    rt_timer_init                            0x080053cb   Thumb Code    58  timer.o(.text)
    rt_timer_detach                          0x08005405   Thumb Code    82  timer.o(.text)
    rt_timer_create                          0x08005457   Thumb Code    54  timer.o(.text)
    rt_timer_delete                          0x0800548d   Thumb Code    88  timer.o(.text)
    rt_timer_start                           0x080054e5   Thumb Code   358  timer.o(.text)
    rt_timer_stop                            0x0800564b   Thumb Code   102  timer.o(.text)
    rt_timer_control                         0x080056b1   Thumb Code   372  timer.o(.text)
    rt_timer_check                           0x08005825   Thumb Code   166  timer.o(.text)
    rt_timer_next_timeout_tick               0x080058cb   Thumb Code    10  timer.o(.text)
    rt_soft_timer_check                      0x080058d5   Thumb Code   168  timer.o(.text)
    rt_system_timer_init                     0x080059bb   Thumb Code    24  timer.o(.text)
    rt_system_timer_thread_init              0x080059d3   Thumb Code    58  timer.o(.text)
    rt_hw_stack_init                         0x08005a49   Thumb Code    70  cpuport.o(.text)
    rt_hw_exception_install                  0x08005a8f   Thumb Code     6  cpuport.o(.text)
    rt_hw_hard_fault_exception               0x08005c73   Thumb Code   198  cpuport.o(.text)
    rt_hw_cpu_shutdown                       0x08005d39   Thumb Code    22  cpuport.o(.text)
    rt_hw_cpu_reset                          0x08005d4f   Thumb Code    10  cpuport.o(.text)
    rt_hw_interrupt_disable                  0x08006029   Thumb Code     8  context_rvds.o(.text)
    rt_hw_interrupt_enable                   0x08006031   Thumb Code     6  context_rvds.o(.text)
    rt_hw_context_switch                     0x08006037   Thumb Code    32  context_rvds.o(.text)
    rt_hw_context_switch_interrupt           0x08006037   Thumb Code     0  context_rvds.o(.text)
    PendSV_Handler                           0x08006057   Thumb Code    60  context_rvds.o(.text)
    rt_hw_context_switch_to                  0x08006093   Thumb Code    58  context_rvds.o(.text)
    rt_hw_interrupt_thread_switch            0x080060cd   Thumb Code     2  context_rvds.o(.text)
    HardFault_Handler                        0x080060cf   Thumb Code    52  context_rvds.o(.text)
    AT24CXX_Init                             0x0800611d   Thumb Code     8  24cxx.o(.text)
    AT24CXX_ReadOneByte                      0x08006125   Thumb Code    88  24cxx.o(.text)
    AT24CXX_WriteOneByte                     0x0800617d   Thumb Code    80  24cxx.o(.text)
    AT24CXX_WriteLenByte                     0x080061cd   Thumb Code    42  24cxx.o(.text)
    AT24CXX_ReadLenByte                      0x080061f7   Thumb Code    44  24cxx.o(.text)
    AT24CXX_Check                            0x08006223   Thumb Code    46  24cxx.o(.text)
    AT24CXX_Read                             0x08006251   Thumb Code    34  24cxx.o(.text)
    AT24CXX_Write                            0x08006273   Thumb Code    36  24cxx.o(.text)
    NRF24L01_SPI_Init                        0x08006299   Thumb Code    48  24l01.o(.text)
    NRF24L01_Read_Buf                        0x080062c9   Thumb Code    56  24l01.o(.text)
    NRF24L01_Write_Buf                       0x08006301   Thumb Code    56  24l01.o(.text)
    NRF24L01_Check                           0x08006339   Thumb Code    72  24l01.o(.text)
    NRF24L01_Init                            0x08006381   Thumb Code   154  24l01.o(.text)
    NRF24L01_Write_Reg                       0x0800641b   Thumb Code    38  24l01.o(.text)
    NRF24L01_Read_Reg                        0x08006441   Thumb Code    36  24l01.o(.text)
    NRF24L01_TxPacket                        0x08006465   Thumb Code   104  24l01.o(.text)
    NRF24L01_RxPacket                        0x080064cd   Thumb Code    58  24l01.o(.text)
    NRF24L01_RX_Mode                         0x08006507   Thumb Code    78  24l01.o(.text)
    NRF24L01_TX_Mode                         0x08006555   Thumb Code    88  24l01.o(.text)
    BEEP_Init                                0x08006611   Thumb Code    90  beep.o(.text)
    beep_warning                             0x0800666b   Thumb Code    58  beep.o(.text)
    adc_Init                                 0x080066b5   Thumb Code   128  bsp_adc.o(.text)
    HAL_ADC_MspInit                          0x08006735   Thumb Code   166  bsp_adc.o(.text)
    HAL_ADC_MspDeInit                        0x080067db   Thumb Code    52  bsp_adc.o(.text)
    adc_get_val                              0x0800680f   Thumb Code   210  bsp_adc.o(.text)
    get_aver_val                             0x080068e1   Thumb Code    86  bsp_adc.o(.text)
    get_LS1_Status                           0x08006937   Thumb Code   102  bsp_adc.o(.text)
    DS18B20_Rst                              0x08006a69   Thumb Code    66  bsp_ds18b20.o(.text)
    DS18B20_Check                            0x08006aab   Thumb Code   130  bsp_ds18b20.o(.text)
    DS18B20_Read_Bit                         0x08006b2d   Thumb Code   116  bsp_ds18b20.o(.text)
    DS18B20_Read_Byte                        0x08006ba1   Thumb Code    34  bsp_ds18b20.o(.text)
    DS18B20_Write_Byte                       0x08006bc3   Thumb Code   134  bsp_ds18b20.o(.text)
    DS18B20_Start                            0x08006c49   Thumb Code    24  bsp_ds18b20.o(.text)
    DS18B20_Init                             0x08006c61   Thumb Code    86  bsp_ds18b20.o(.text)
    DS18B20_Get_Temp                         0x08006cb7   Thumb Code   140  bsp_ds18b20.o(.text)
    show_temp                                0x08006d43   Thumb Code    32  bsp_ds18b20.o(.text)
    Read_ROM                                 0x08006d63   Thumb Code   122  bsp_ds18b20.o(.text)
    scm800c_init                             0x08006e51   Thumb Code   416  bsp_gsm.o(.text)
    GSM_SendSMS                              0x08006ff1   Thumb Code  2572  bsp_gsm.o(.text)
    LED_Init                                 0x08007ad5   Thumb Code   218  bsp_led.o(.text)
    Led_Demo                                 0x08007baf   Thumb Code    42  bsp_led.o(.text)
    LED_Flash                                0x08007bd9   Thumb Code   114  bsp_led.o(.text)
    Light_Control                            0x08007c4b   Thumb Code   296  bsp_led.o(.text)
    RSD_init                                 0x08007e69   Thumb Code    70  bsp_rsd.o(.text)
    TIM5_Init                                0x08007eb9   Thumb Code    82  bsp_timer.o(.text)
    HAL_TIM_Base_MspInit                     0x08007f0b   Thumb Code    58  bsp_timer.o(.text)
    TIM5_IRQHandler                          0x08007f45   Thumb Code    72  bsp_timer.o(.text)
    WB_init                                  0x08007fa1   Thumb Code    76  bsp_wb.o(.text)
    CT_Delay                                 0x08007ff9   Thumb Code    10  ctiic.o(.text)
    CT_IIC_Init                              0x08008003   Thumb Code   110  ctiic.o(.text)
    CT_IIC_Start                             0x08008071   Thumb Code    66  ctiic.o(.text)
    CT_IIC_Stop                              0x080080b3   Thumb Code    60  ctiic.o(.text)
    CT_IIC_Wait_Ack                          0x080080ef   Thumb Code    86  ctiic.o(.text)
    CT_IIC_Ack                               0x08008145   Thumb Code    70  ctiic.o(.text)
    CT_IIC_NAck                              0x0800818b   Thumb Code    70  ctiic.o(.text)
    CT_IIC_Send_Byte                         0x080081d1   Thumb Code    86  ctiic.o(.text)
    CT_IIC_Read_Byte                         0x08008227   Thumb Code   100  ctiic.o(.text)
    delay_init                               0x080082a9   Thumb Code    52  delay.o(.text)
    delay_us                                 0x080082dd   Thumb Code    72  delay.o(.text)
    delay_ms                                 0x08008325   Thumb Code    72  delay.o(.text)
    DHT11_Rst                                0x08008379   Thumb Code    52  dht11.o(.text)
    DHT11_Check                              0x080083ad   Thumb Code    96  dht11.o(.text)
    DHT11_Read_Bit                           0x0800840d   Thumb Code    76  dht11.o(.text)
    DHT11_Read_Byte                          0x08008459   Thumb Code    30  dht11.o(.text)
    DHT11_Read_Data                          0x08008477   Thumb Code    88  dht11.o(.text)
    DHT11_Init                               0x080084cf   Thumb Code    66  dht11.o(.text)
    DM9000_WriteReg                          0x08008521   Thumb Code    14  dm9000.o(.text)
    DM9000_ReadReg                           0x0800852f   Thumb Code    16  dm9000.o(.text)
    DM9000_PHY_ReadReg                       0x0800853f   Thumb Code    60  dm9000.o(.text)
    DM9000_Get_SpeedAndDuplex                0x0800857b   Thumb Code   110  dm9000.o(.text)
    DM9000_Set_Multicast                     0x080085e9   Thumb Code    28  dm9000.o(.text)
    DM9000_Set_MACAddress                    0x08008605   Thumb Code    28  dm9000.o(.text)
    DM9000_PHY_WriteReg                      0x08008621   Thumb Code    56  dm9000.o(.text)
    DM9000_Set_PHYMode                       0x08008659   Thumb Code    92  dm9000.o(.text)
    DM9000_Get_DeiviceID                     0x080086b5   Thumb Code    44  dm9000.o(.text)
    DM9000_Reset                             0x080086e1   Thumb Code   114  dm9000.o(.text)
    DM9000_Init                              0x08008753   Thumb Code   694  dm9000.o(.text)
    EXTI9_5_IRQHandler                       0x08008a09   Thumb Code    18  dm9000.o(.text)
    DM9000_SendPacket                        0x08008a1b   Thumb Code   180  dm9000.o(.text)
    DM9000_Receive_Packet                    0x08008acf   Thumb Code   350  dm9000.o(.text)
    DMA9000_ISRHandler                       0x08008c2d   Thumb Code    52  dm9000.o(.text)
    FT5206_WR_Reg                            0x08008d8d   Thumb Code    82  ft5206.o(.text)
    FT5206_RD_Reg                            0x08008ddf   Thumb Code    88  ft5206.o(.text)
    FT5206_Init                              0x08008e37   Thumb Code   212  ft5206.o(.text)
    FT5206_Scan                              0x08008f0b   Thumb Code   400  ft5206.o(.text)
    GT9147_WR_Reg                            0x080090c5   Thumb Code    92  gt9147.o(.text)
    GT9147_Send_Cfg                          0x08009121   Thumb Code    86  gt9147.o(.text)
    GT9147_RD_Reg                            0x08009177   Thumb Code    98  gt9147.o(.text)
    GT9147_Init                              0x080091d9   Thumb Code   254  gt9147.o(.text)
    GT9147_Scan                              0x080092d7   Thumb Code   494  gt9147.o(.text)
    LCD_WR_REG                               0x08009511   Thumb Code    18  lcd.o(.text)
    LCD_WR_DATA                              0x08009523   Thumb Code    20  lcd.o(.text)
    LCD_RD_DATA                              0x08009537   Thumb Code    16  lcd.o(.text)
    LCD_WriteReg                             0x08009547   Thumb Code    10  lcd.o(.text)
    LCD_ReadReg                              0x08009551   Thumb Code    22  lcd.o(.text)
    LCD_WriteRAM_Prepare                     0x08009567   Thumb Code    10  lcd.o(.text)
    LCD_WriteRAM                             0x08009571   Thumb Code     8  lcd.o(.text)
    LCD_BGR2RGB                              0x08009579   Thumb Code    26  lcd.o(.text)
    opt_delay                                0x08009593   Thumb Code    14  lcd.o(.text)
    LCD_SetCursor                            0x080095a1   Thumb Code   306  lcd.o(.text)
    LCD_ReadPoint                            0x080096d3   Thumb Code   180  lcd.o(.text)
    LCD_DisplayOn                            0x08009787   Thumb Code    68  lcd.o(.text)
    LCD_DisplayOff                           0x080097cb   Thumb Code    68  lcd.o(.text)
    LCD_Scan_Dir                             0x0800980f   Thumb Code   634  lcd.o(.text)
    LCD_DrawPoint                            0x08009a89   Thumb Code    28  lcd.o(.text)
    LCD_Fast_DrawPoint                       0x08009aa5   Thumb Code   258  lcd.o(.text)
    LCD_SSD_BackLightSet                     0x08009ba7   Thumb Code    80  lcd.o(.text)
    LCD_Display_Dir                          0x08009bf7   Thumb Code   364  lcd.o(.text)
    LCD_Set_Window                           0x08009d63   Thumb Code   398  lcd.o(.text)
    HAL_SRAM_MspInit                         0x08009ef1   Thumb Code   170  lcd.o(.text)
    LCD_Clear                                0x08009f9b   Thumb Code    42  lcd.o(.text)
    LCD_Init                                 0x08009fc5   Thumb Code  9334  lcd.o(.text)
    LCD_Fill                                 0x0800c43b   Thumb Code    80  lcd.o(.text)
    LCD_Color_Fill                           0x0800c48b   Thumb Code    92  lcd.o(.text)
    LCD_DrawLine                             0x0800c4e7   Thumb Code   176  lcd.o(.text)
    LCD_DrawRectangle                        0x0800c597   Thumb Code    60  lcd.o(.text)
    LCD_Draw_Circle                          0x0800c5d3   Thumb Code   170  lcd.o(.text)
    LCD_ShowChar                             0x0800c67d   Thumb Code   288  lcd.o(.text)
    LCD_Pow                                  0x0800c79d   Thumb Code    22  lcd.o(.text)
    LCD_ShowNum                              0x0800c7b3   Thumb Code   148  lcd.o(.text)
    LCD_ShowxNum                             0x0800c847   Thumb Code   190  lcd.o(.text)
    LCD_ShowString                           0x0800c905   Thumb Code   102  lcd.o(.text)
    Draw_window                              0x0800c96b   Thumb Code   666  lcd.o(.text)
    Draw_Number_Pad                          0x0800cc05   Thumb Code   328  lcd.o(.text)
    Smart_IOT_Center                         0x0800dc8d   Thumb Code   730  main.o(.text)
    $Super$$main                             0x0800df67   Thumb Code    38  main.o(.text)
    IIC_Init                                 0x0800e209   Thumb Code    70  myiic.o(.text)
    IIC_Start                                0x0800e24f   Thumb Code    64  myiic.o(.text)
    IIC_Stop                                 0x0800e28f   Thumb Code    66  myiic.o(.text)
    IIC_Wait_Ack                             0x0800e2d1   Thumb Code    86  myiic.o(.text)
    IIC_Ack                                  0x0800e327   Thumb Code    70  myiic.o(.text)
    IIC_NAck                                 0x0800e36d   Thumb Code    70  myiic.o(.text)
    IIC_Send_Byte                            0x0800e3b3   Thumb Code    92  myiic.o(.text)
    IIC_Read_Byte                            0x0800e40f   Thumb Code   100  myiic.o(.text)
    OTT2001A_WR_Reg                          0x0800e485   Thumb Code    92  ott2001a.o(.text)
    OTT2001A_RD_Reg                          0x0800e4e1   Thumb Code    98  ott2001a.o(.text)
    OTT2001A_SensorControl                   0x0800e543   Thumb Code    28  ott2001a.o(.text)
    OTT2001A_Init                            0x0800e55f   Thumb Code   152  ott2001a.o(.text)
    OTT2001A_Scan                            0x0800e5f7   Thumb Code   446  ott2001a.o(.text)
    delay200                                 0x0800e7f1   Thumb Code    42  public.o(.text)
    Delay_ms                                 0x0800e81b   Thumb Code    42  public.o(.text)
    Delay1us                                 0x0800e845   Thumb Code    16  public.o(.text)
    delay_2us                                0x0800e855   Thumb Code    24  public.o(.text)
    Delay_1US                                0x0800e86d   Thumb Code    18  public.o(.text)
    Get_decimal                              0x0800e87f   Thumb Code   120  public.o(.text)
    Remote_Init                              0x0800e8f9   Thumb Code    88  remote.o(.text)
    HAL_TIM_IC_MspInit                       0x0800e951   Thumb Code   102  remote.o(.text)
    TIM4_IRQHandler                          0x0800e9b7   Thumb Code    10  remote.o(.text)
    HAL_TIM_PeriodElapsedCallback            0x0800e9c1   Thumb Code    98  remote.o(.text)
    HAL_TIM_IC_CaptureCallback               0x0800ea23   Thumb Code   326  remote.o(.text)
    Remote_Scan                              0x0800eb69   Thumb Code    92  remote.o(.text)
    RTC_Get_Week                             0x0800ebe9   Thumb Code   116  rtc.o(.text)
    Is_Leap_Year                             0x0800ec5d   Thumb Code    58  rtc.o(.text)
    RTC_Get                                  0x0800ec97   Thumb Code   242  rtc.o(.text)
    RTC_Set                                  0x0800ed89   Thumb Code   258  rtc.o(.text)
    RTC_Init                                 0x0800ee8b   Thumb Code   140  rtc.o(.text)
    HAL_RTC_MspInit                          0x0800ef17   Thumb Code   108  rtc.o(.text)
    clock_demo                               0x0800ef83   Thumb Code   458  rtc.o(.text)
    RTC_IRQHandler                           0x0800f14d   Thumb Code    80  rtc.o(.text)
    RTC_Alarm_Set                            0x0800f19d   Thumb Code   242  rtc.o(.text)
    Set_Time                                 0x0800f28f   Thumb Code  5906  rtc.o(.text)
    SPI2_ReadWriteByte                       0x08010a65   Thumb Code    28  spi.o(.text)
    SPI2_Init                                0x08010a81   Thumb Code    78  spi.o(.text)
    HAL_SPI_MspInit                          0x08010acf   Thumb Code    90  spi.o(.text)
    SPI2_SetSpeed                            0x08010b29   Thumb Code    66  spi.o(.text)
    TP_Write_Byte                            0x08010b7d   Thumb Code    64  touch.o(.text)
    TP_Read_AD                               0x08010bbd   Thumb Code   136  touch.o(.text)
    TP_Read_XOY                              0x08010c45   Thumb Code   120  touch.o(.text)
    TP_Read_XY                               0x08010cbd   Thumb Code    38  touch.o(.text)
    TP_Read_XY2                              0x08010ce3   Thumb Code   192  touch.o(.text)
    TP_Drow_Touch_Point                      0x08010da3   Thumb Code   108  touch.o(.text)
    TP_Draw_Big_Point                        0x08010e0f   Thumb Code    54  touch.o(.text)
    TP_Scan                                  0x08010e45   Thumb Code   264  touch.o(.text)
    TP_Save_Adjdata                          0x08010f4d   Thumb Code    24  touch.o(.text)
    TP_Get_Adjdata                           0x08010f65   Thumb Code   104  touch.o(.text)
    TP_Adj_Info_Show                         0x08010fcd   Thumb Code   374  touch.o(.text)
    TP_Adjust                                0x08011143   Thumb Code  2128  touch.o(.text)
    TP_Init                                  0x08011993   Thumb Code   326  touch.o(.text)
    uart1_init                               0x08011b31   Thumb Code    52  usart.o(.text)
    uart2_init                               0x08011b65   Thumb Code    68  usart.o(.text)
    HAL_UART_MspInit                         0x08011ba9   Thumb Code   274  usart.o(.text)
    USART2_IRQHandler                        0x08011cbb   Thumb Code   104  usart.o(.text)
    usart2_senddata                          0x08011d23   Thumb Code    36  usart.o(.text)
    HAL_MspInit                              0x08011da5   Thumb Code   132  board.o(.text)
    SystemClock_Config                       0x08011e29   Thumb Code   132  board.o(.text)
    SysTick_Handler                          0x08011ead   Thumb Code    20  board.o(.text)
    rt_hw_board_init                         0x08011ec1   Thumb Code   136  board.o(.text)
    rt_hw_us_delay                           0x08011f49   Thumb Code    62  board.o(.text)
    NMI_Handler                              0x0801202d   Thumb Code     2  stm32f1xx_it.o(.text)
    MemManage_Handler                        0x0801202f   Thumb Code     4  stm32f1xx_it.o(.text)
    BusFault_Handler                         0x08012033   Thumb Code     4  stm32f1xx_it.o(.text)
    UsageFault_Handler                       0x08012037   Thumb Code     4  stm32f1xx_it.o(.text)
    DebugMon_Handler                         0x0801203b   Thumb Code     2  stm32f1xx_it.o(.text)
    stm32_pin_write                          0x08012199   Thumb Code    56  drv_gpio.o(.text)
    stm32_pin_read                           0x080121d1   Thumb Code    52  drv_gpio.o(.text)
    stm32_pin_mode                           0x08012205   Thumb Code   118  drv_gpio.o(.text)
    stm32_pin_attach_irq                     0x0801227b   Thumb Code   212  drv_gpio.o(.text)
    stm32_pin_detach_irq                     0x0801234f   Thumb Code   134  drv_gpio.o(.text)
    stm32_pin_irq_enable                     0x080123d5   Thumb Code   304  drv_gpio.o(.text)
    rt_hw_pin_init                           0x08012505   Thumb Code    18  drv_gpio.o(.text)
    HAL_GPIO_EXTI_Callback                   0x08012517   Thumb Code    12  drv_gpio.o(.text)
    EXTI0_IRQHandler                         0x08012523   Thumb Code    18  drv_gpio.o(.text)
    EXTI1_IRQHandler                         0x08012535   Thumb Code    18  drv_gpio.o(.text)
    EXTI2_IRQHandler                         0x08012547   Thumb Code    18  drv_gpio.o(.text)
    EXTI3_IRQHandler                         0x08012559   Thumb Code    18  drv_gpio.o(.text)
    EXTI4_IRQHandler                         0x0801256b   Thumb Code    18  drv_gpio.o(.text)
    EXTI15_10_IRQHandler                     0x0801257d   Thumb Code    60  drv_gpio.o(.text)
    USART1_IRQHandler                        0x080127e3   Thumb Code    18  drv_usart.o(.text)
    rt_hw_usart_init                         0x080127f5   Thumb Code    50  drv_usart.o(.text)
    HAL_UART_MspDeInit                       0x08012827   Thumb Code   116  drv_usart.o(.text)
    SystemInit                               0x08012919   Thumb Code    70  system_stm32f1xx.o(.text)
    SystemCoreClockUpdate                    0x0801295f   Thumb Code   142  system_stm32f1xx.o(.text)
    ADC_ConversionStop_Disable               0x08012a0d   Thumb Code    82  stm32f1xx_hal_adc.o(.text)
    HAL_ADC_Init                             0x08012a61   Thumb Code   340  stm32f1xx_hal_adc.o(.text)
    HAL_ADC_DeInit                           0x08012bb7   Thumb Code   258  stm32f1xx_hal_adc.o(.text)
    ADC_Enable                               0x08012cb9   Thumb Code   122  stm32f1xx_hal_adc.o(.text)
    HAL_ADC_Start                            0x08012d33   Thumb Code   294  stm32f1xx_hal_adc.o(.text)
    HAL_ADC_Stop                             0x08012e59   Thumb Code   100  stm32f1xx_hal_adc.o(.text)
    HAL_ADC_PollForConversion                0x08012ebd   Thumb Code   350  stm32f1xx_hal_adc.o(.text)
    HAL_ADC_PollForEvent                     0x0801301b   Thumb Code   100  stm32f1xx_hal_adc.o(.text)
    HAL_ADC_Start_IT                         0x0801307f   Thumb Code   306  stm32f1xx_hal_adc.o(.text)
    HAL_ADC_Stop_IT                          0x080131b1   Thumb Code    76  stm32f1xx_hal_adc.o(.text)
    HAL_ADC_ErrorCallback                    0x080131fd   Thumb Code     2  stm32f1xx_hal_adc.o(.text)
    ADC_DMAError                             0x080131ff   Thumb Code    30  stm32f1xx_hal_adc.o(.text)
    HAL_ADC_ConvHalfCpltCallback             0x0801321d   Thumb Code     2  stm32f1xx_hal_adc.o(.text)
    ADC_DMAHalfConvCplt                      0x0801321f   Thumb Code    14  stm32f1xx_hal_adc.o(.text)
    HAL_ADC_ConvCpltCallback                 0x0801322d   Thumb Code     2  stm32f1xx_hal_adc.o(.text)
    ADC_DMAConvCplt                          0x0801322f   Thumb Code    82  stm32f1xx_hal_adc.o(.text)
    HAL_ADC_Start_DMA                        0x08013281   Thumb Code   392  stm32f1xx_hal_adc.o(.text)
    HAL_ADC_Stop_DMA                         0x08013409   Thumb Code    96  stm32f1xx_hal_adc.o(.text)
    HAL_ADC_GetValue                         0x08013469   Thumb Code     8  stm32f1xx_hal_adc.o(.text)
    HAL_ADC_LevelOutOfWindowCallback         0x08013471   Thumb Code     2  stm32f1xx_hal_adc.o(.text)
    HAL_ADC_IRQHandler                       0x08013473   Thumb Code   290  stm32f1xx_hal_adc.o(.text)
    HAL_ADC_ConfigChannel                    0x08013595   Thumb Code   338  stm32f1xx_hal_adc.o(.text)
    HAL_ADC_AnalogWDGConfig                  0x080136e7   Thumb Code   160  stm32f1xx_hal_adc.o(.text)
    HAL_ADC_GetState                         0x08013787   Thumb Code     6  stm32f1xx_hal_adc.o(.text)
    HAL_ADC_GetError                         0x0801378d   Thumb Code     6  stm32f1xx_hal_adc.o(.text)
    HAL_ADCEx_Calibration_Start              0x08013799   Thumb Code   256  stm32f1xx_hal_adc_ex.o(.text)
    HAL_ADCEx_InjectedStart                  0x08013899   Thumb Code   226  stm32f1xx_hal_adc_ex.o(.text)
    HAL_ADCEx_InjectedStop                   0x0801397b   Thumb Code    94  stm32f1xx_hal_adc_ex.o(.text)
    HAL_ADCEx_InjectedPollForConversion      0x080139d9   Thumb Code   330  stm32f1xx_hal_adc_ex.o(.text)
    HAL_ADCEx_InjectedStart_IT               0x08013b23   Thumb Code   264  stm32f1xx_hal_adc_ex.o(.text)
    HAL_ADCEx_InjectedStop_IT                0x08013c2b   Thumb Code   106  stm32f1xx_hal_adc_ex.o(.text)
    HAL_ADCEx_MultiModeStart_DMA             0x08013c95   Thumb Code   254  stm32f1xx_hal_adc_ex.o(.text)
    HAL_ADCEx_MultiModeStop_DMA              0x08013d93   Thumb Code   136  stm32f1xx_hal_adc_ex.o(.text)
    HAL_ADCEx_InjectedGetValue               0x08013e1b   Thumb Code    50  stm32f1xx_hal_adc_ex.o(.text)
    HAL_ADCEx_MultiModeGetValue              0x08013e4d   Thumb Code    32  stm32f1xx_hal_adc_ex.o(.text)
    HAL_ADCEx_InjectedConvCpltCallback       0x08013e6d   Thumb Code     2  stm32f1xx_hal_adc_ex.o(.text)
    HAL_ADCEx_InjectedConfigChannel          0x08013e6f   Thumb Code   640  stm32f1xx_hal_adc_ex.o(.text)
    HAL_ADCEx_MultiModeConfigChannel         0x080140ef   Thumb Code   106  stm32f1xx_hal_adc_ex.o(.text)
    HAL_GPIO_Init                            0x08014169   Thumb Code   790  stm32f1xx_hal_gpio.o(.text)
    HAL_GPIO_DeInit                          0x0801447f   Thumb Code   312  stm32f1xx_hal_gpio.o(.text)
    HAL_GPIO_ReadPin                         0x080145b7   Thumb Code    16  stm32f1xx_hal_gpio.o(.text)
    HAL_GPIO_WritePin                        0x080145c7   Thumb Code    12  stm32f1xx_hal_gpio.o(.text)
    HAL_GPIO_TogglePin                       0x080145d3   Thumb Code     8  stm32f1xx_hal_gpio.o(.text)
    HAL_GPIO_LockPin                         0x080145db   Thumb Code    46  stm32f1xx_hal_gpio.o(.text)
    HAL_GPIO_EXTI_IRQHandler                 0x0801460b   Thumb Code    28  stm32f1xx_hal_gpio.o(.text)
    HAL_DMA_Init                             0x08014651   Thumb Code   132  stm32f1xx_hal_dma.o(.text)
    HAL_DMA_DeInit                           0x080146d5   Thumb Code   132  stm32f1xx_hal_dma.o(.text)
    HAL_DMA_Start                            0x08014785   Thumb Code   114  stm32f1xx_hal_dma.o(.text)
    HAL_DMA_Start_IT                         0x080147f7   Thumb Code   156  stm32f1xx_hal_dma.o(.text)
    HAL_DMA_Abort                            0x08014893   Thumb Code    58  stm32f1xx_hal_dma.o(.text)
    HAL_DMA_Abort_IT                         0x080148cd   Thumb Code   422  stm32f1xx_hal_dma.o(.text)
    HAL_DMA_PollForTransfer                  0x08014a73   Thumb Code  1614  stm32f1xx_hal_dma.o(.text)
    HAL_DMA_IRQHandler                       0x080150c1   Thumb Code   922  stm32f1xx_hal_dma.o(.text)
    HAL_DMA_RegisterCallback                 0x0801545b   Thumb Code    90  stm32f1xx_hal_dma.o(.text)
    HAL_DMA_UnRegisterCallback               0x080154b5   Thumb Code   106  stm32f1xx_hal_dma.o(.text)
    HAL_DMA_GetState                         0x0801551f   Thumb Code     8  stm32f1xx_hal_dma.o(.text)
    HAL_DMA_GetError                         0x08015527   Thumb Code     6  stm32f1xx_hal_dma.o(.text)
    HAL_NVIC_SetPriorityGrouping             0x08015555   Thumb Code    36  stm32f1xx_hal_cortex.o(.text)
    HAL_NVIC_SetPriority                     0x08015579   Thumb Code   124  stm32f1xx_hal_cortex.o(.text)
    HAL_NVIC_EnableIRQ                       0x080155f5   Thumb Code    26  stm32f1xx_hal_cortex.o(.text)
    HAL_NVIC_DisableIRQ                      0x0801560f   Thumb Code    22  stm32f1xx_hal_cortex.o(.text)
    HAL_NVIC_SystemReset                     0x08015625   Thumb Code    64  stm32f1xx_hal_cortex.o(.text)
    HAL_SYSTICK_Config                       0x08015665   Thumb Code    52  stm32f1xx_hal_cortex.o(.text)
    HAL_NVIC_GetPriorityGrouping             0x08015699   Thumb Code     8  stm32f1xx_hal_cortex.o(.text)
    HAL_NVIC_GetPriority                     0x080156a1   Thumb Code   138  stm32f1xx_hal_cortex.o(.text)
    HAL_NVIC_SetPendingIRQ                   0x0801572b   Thumb Code    24  stm32f1xx_hal_cortex.o(.text)
    HAL_NVIC_GetPendingIRQ                   0x08015743   Thumb Code    38  stm32f1xx_hal_cortex.o(.text)
    HAL_NVIC_ClearPendingIRQ                 0x08015769   Thumb Code    22  stm32f1xx_hal_cortex.o(.text)
    HAL_NVIC_GetActive                       0x0801577f   Thumb Code    38  stm32f1xx_hal_cortex.o(.text)
    HAL_SYSTICK_CLKSourceConfig              0x080157a5   Thumb Code    40  stm32f1xx_hal_cortex.o(.text)
    HAL_SYSTICK_Callback                     0x080157cd   Thumb Code     2  stm32f1xx_hal_cortex.o(.text)
    HAL_SYSTICK_IRQHandler                   0x080157cf   Thumb Code     8  stm32f1xx_hal_cortex.o(.text)
    HAL_PWR_DeInit                           0x080157ff   Thumb Code    24  stm32f1xx_hal_pwr.o(.text)
    HAL_PWR_EnableBkUpAccess                 0x08015817   Thumb Code     8  stm32f1xx_hal_pwr.o(.text)
    HAL_PWR_DisableBkUpAccess                0x0801581f   Thumb Code     8  stm32f1xx_hal_pwr.o(.text)
    HAL_PWR_ConfigPVD                        0x08015827   Thumb Code   172  stm32f1xx_hal_pwr.o(.text)
    HAL_PWR_EnablePVD                        0x080158d3   Thumb Code     8  stm32f1xx_hal_pwr.o(.text)
    HAL_PWR_DisablePVD                       0x080158db   Thumb Code     8  stm32f1xx_hal_pwr.o(.text)
    HAL_PWR_EnableWakeUpPin                  0x080158e3   Thumb Code    22  stm32f1xx_hal_pwr.o(.text)
    HAL_PWR_DisableWakeUpPin                 0x080158f9   Thumb Code    22  stm32f1xx_hal_pwr.o(.text)
    HAL_PWR_EnterSLEEPMode                   0x0801590f   Thumb Code    28  stm32f1xx_hal_pwr.o(.text)
    HAL_PWR_EnterSTOPMode                    0x0801592b   Thumb Code    74  stm32f1xx_hal_pwr.o(.text)
    HAL_PWR_EnterSTANDBYMode                 0x08015975   Thumb Code    32  stm32f1xx_hal_pwr.o(.text)
    HAL_PWR_EnableSleepOnExit                0x08015995   Thumb Code    14  stm32f1xx_hal_pwr.o(.text)
    HAL_PWR_DisableSleepOnExit               0x080159a3   Thumb Code    14  stm32f1xx_hal_pwr.o(.text)
    HAL_PWR_EnableSEVOnPend                  0x080159b1   Thumb Code    14  stm32f1xx_hal_pwr.o(.text)
    HAL_PWR_DisableSEVOnPend                 0x080159bf   Thumb Code    14  stm32f1xx_hal_pwr.o(.text)
    HAL_PWR_PVDCallback                      0x080159cd   Thumb Code     2  stm32f1xx_hal_pwr.o(.text)
    HAL_PWR_PVD_IRQHandler                   0x080159cf   Thumb Code    30  stm32f1xx_hal_pwr.o(.text)
    HAL_RCC_DeInit                           0x08015a01   Thumb Code   252  stm32f1xx_hal_rcc.o(.text)
    HAL_RCC_OscConfig                        0x08015b21   Thumb Code  1084  stm32f1xx_hal_rcc.o(.text)
    HAL_RCC_GetSysClockFreq                  0x08015f5d   Thumb Code   116  stm32f1xx_hal_rcc.o(.text)
    HAL_RCC_ClockConfig                      0x08015fd1   Thumb Code   446  stm32f1xx_hal_rcc.o(.text)
    HAL_RCC_MCOConfig                        0x0801618f   Thumb Code    92  stm32f1xx_hal_rcc.o(.text)
    HAL_RCC_EnableCSS                        0x080161eb   Thumb Code     8  stm32f1xx_hal_rcc.o(.text)
    HAL_RCC_DisableCSS                       0x080161f3   Thumb Code    62  stm32f1xx_hal_rcc.o(.text)
    HAL_RCC_GetHCLKFreq                      0x08016231   Thumb Code     6  stm32f1xx_hal_rcc.o(.text)
    HAL_RCC_GetPCLK1Freq                     0x08016237   Thumb Code    22  stm32f1xx_hal_rcc.o(.text)
    HAL_RCC_GetPCLK2Freq                     0x0801624d   Thumb Code    22  stm32f1xx_hal_rcc.o(.text)
    HAL_RCC_GetOscConfig                     0x08016263   Thumb Code   196  stm32f1xx_hal_rcc.o(.text)
    HAL_RCC_GetClockConfig                   0x08016327   Thumb Code    58  stm32f1xx_hal_rcc.o(.text)
    HAL_RCC_CSSCallback                      0x08016361   Thumb Code     2  stm32f1xx_hal_rcc.o(.text)
    HAL_RCC_NMI_IRQHandler                   0x08016363   Thumb Code    26  stm32f1xx_hal_rcc.o(.text)
    HAL_RCCEx_PeriphCLKConfig                0x0801638d   Thumb Code   290  stm32f1xx_hal_rcc_ex.o(.text)
    HAL_RCCEx_GetPeriphCLKConfig             0x080164af   Thumb Code    78  stm32f1xx_hal_rcc_ex.o(.text)
    HAL_RCCEx_GetPeriphCLKFreq               0x080164fd   Thumb Code   284  stm32f1xx_hal_rcc_ex.o(.text)
    HAL_RTC_WaitForSynchro                   0x080166b5   Thumb Code    64  stm32f1xx_hal_rtc.o(.text)
    HAL_RTC_Init                             0x080166f7   Thumb Code   202  stm32f1xx_hal_rtc.o(.text)
    HAL_RTC_MspDeInit                        0x080167c1   Thumb Code     2  stm32f1xx_hal_rtc.o(.text)
    HAL_RTC_DeInit                           0x080167c3   Thumb Code   132  stm32f1xx_hal_rtc.o(.text)
    HAL_RTC_SetTime                          0x080168d1   Thumb Code   214  stm32f1xx_hal_rtc.o(.text)
    HAL_RTC_GetTime                          0x08016b69   Thumb Code   260  stm32f1xx_hal_rtc.o(.text)
    HAL_RTC_SetDate                          0x08016c6d   Thumb Code   242  stm32f1xx_hal_rtc.o(.text)
    HAL_RTC_GetDate                          0x08016d5f   Thumb Code    82  stm32f1xx_hal_rtc.o(.text)
    HAL_RTC_SetAlarm                         0x08016db1   Thumb Code   208  stm32f1xx_hal_rtc.o(.text)
    HAL_RTC_SetAlarm_IT                      0x08016e81   Thumb Code   256  stm32f1xx_hal_rtc.o(.text)
    HAL_RTC_GetAlarm                         0x08016f81   Thumb Code   126  stm32f1xx_hal_rtc.o(.text)
    HAL_RTC_DeactivateAlarm                  0x08016fff   Thumb Code   140  stm32f1xx_hal_rtc.o(.text)
    HAL_RTC_AlarmAEventCallback              0x0801708b   Thumb Code     2  stm32f1xx_hal_rtc.o(.text)
    HAL_RTC_AlarmIRQHandler                  0x0801708d   Thumb Code    54  stm32f1xx_hal_rtc.o(.text)
    HAL_RTC_PollForAlarmAEvent               0x080170c3   Thumb Code    70  stm32f1xx_hal_rtc.o(.text)
    HAL_RTC_GetState                         0x08017109   Thumb Code    16  stm32f1xx_hal_rtc.o(.text)
    HAL_RTCEx_SetTamper                      0x08017119   Thumb Code    98  stm32f1xx_hal_rtc_ex.o(.text)
    HAL_RTCEx_SetTamper_IT                   0x0801717b   Thumb Code   110  stm32f1xx_hal_rtc_ex.o(.text)
    HAL_RTCEx_DeactivateTamper               0x080171e9   Thumb Code    94  stm32f1xx_hal_rtc_ex.o(.text)
    HAL_RTCEx_Tamper1EventCallback           0x08017247   Thumb Code     2  stm32f1xx_hal_rtc_ex.o(.text)
    HAL_RTCEx_TamperIRQHandler               0x08017249   Thumb Code    56  stm32f1xx_hal_rtc_ex.o(.text)
    HAL_RTCEx_PollForTamper1Event            0x08017281   Thumb Code    80  stm32f1xx_hal_rtc_ex.o(.text)
    HAL_RTCEx_SetSecond_IT                   0x080172d1   Thumb Code    58  stm32f1xx_hal_rtc_ex.o(.text)
    HAL_RTCEx_DeactivateSecond               0x0801730b   Thumb Code    58  stm32f1xx_hal_rtc_ex.o(.text)
    HAL_RTCEx_RTCEventCallback               0x08017345   Thumb Code     2  stm32f1xx_hal_rtc_ex.o(.text)
    HAL_RTCEx_RTCEventErrorCallback          0x08017347   Thumb Code     2  stm32f1xx_hal_rtc_ex.o(.text)
    HAL_RTCEx_RTCIRQHandler                  0x08017349   Thumb Code    74  stm32f1xx_hal_rtc_ex.o(.text)
    HAL_RTCEx_BKUPWrite                      0x08017393   Thumb Code    20  stm32f1xx_hal_rtc_ex.o(.text)
    HAL_RTCEx_BKUPRead                       0x080173a7   Thumb Code    22  stm32f1xx_hal_rtc_ex.o(.text)
    HAL_RTCEx_SetSmoothCalib                 0x080173bd   Thumb Code    62  stm32f1xx_hal_rtc_ex.o(.text)
    HAL_SPI_MspDeInit                        0x0801749d   Thumb Code     2  stm32f1xx_hal_spi.o(.text)
    HAL_SPI_DeInit                           0x0801749f   Thumb Code    54  stm32f1xx_hal_spi.o(.text)
    HAL_SPI_Transmit                         0x080175a7   Thumb Code   480  stm32f1xx_hal_spi.o(.text)
    HAL_SPI_TransmitReceive                  0x0801778d   Thumb Code   756  stm32f1xx_hal_spi.o(.text)
    HAL_SPI_Receive                          0x08017a81   Thumb Code   586  stm32f1xx_hal_spi.o(.text)
    HAL_SPI_TxCpltCallback                   0x08017ccb   Thumb Code     2  stm32f1xx_hal_spi.o(.text)
    HAL_SPI_ErrorCallback                    0x08017ccd   Thumb Code     2  stm32f1xx_hal_spi.o(.text)
    HAL_SPI_Transmit_IT                      0x08017dd7   Thumb Code   214  stm32f1xx_hal_spi.o(.text)
    HAL_SPI_RxCpltCallback                   0x08017ead   Thumb Code     2  stm32f1xx_hal_spi.o(.text)
    HAL_SPI_TxRxCpltCallback                 0x0801803f   Thumb Code     2  stm32f1xx_hal_spi.o(.text)
    HAL_SPI_TransmitReceive_IT               0x080182e5   Thumb Code   230  stm32f1xx_hal_spi.o(.text)
    HAL_SPI_Receive_IT                       0x080183cb   Thumb Code   232  stm32f1xx_hal_spi.o(.text)
    HAL_SPI_TxHalfCpltCallback               0x0801854f   Thumb Code     2  stm32f1xx_hal_spi.o(.text)
    HAL_SPI_Transmit_DMA                     0x0801855f   Thumb Code   292  stm32f1xx_hal_spi.o(.text)
    HAL_SPI_RxHalfCpltCallback               0x0801875f   Thumb Code     2  stm32f1xx_hal_spi.o(.text)
    HAL_SPI_TxRxHalfCpltCallback             0x0801883d   Thumb Code     2  stm32f1xx_hal_spi.o(.text)
    HAL_SPI_TransmitReceive_DMA              0x0801884d   Thumb Code   340  stm32f1xx_hal_spi.o(.text)
    HAL_SPI_Receive_DMA                      0x080189a1   Thumb Code   276  stm32f1xx_hal_spi.o(.text)
    HAL_SPI_Abort                            0x08018b31   Thumb Code   228  stm32f1xx_hal_spi.o(.text)
    HAL_SPI_AbortCpltCallback                0x08018c15   Thumb Code     2  stm32f1xx_hal_spi.o(.text)
    HAL_SPI_Abort_IT                         0x08018d09   Thumb Code   280  stm32f1xx_hal_spi.o(.text)
    HAL_SPI_DMAPause                         0x08018e21   Thumb Code    50  stm32f1xx_hal_spi.o(.text)
    HAL_SPI_DMAResume                        0x08018e53   Thumb Code    50  stm32f1xx_hal_spi.o(.text)
    HAL_SPI_DMAStop                          0x08018e85   Thumb Code    46  stm32f1xx_hal_spi.o(.text)
    HAL_SPI_IRQHandler                       0x08018ec7   Thumb Code   276  stm32f1xx_hal_spi.o(.text)
    HAL_SPI_GetState                         0x08018fdb   Thumb Code     8  stm32f1xx_hal_spi.o(.text)
    HAL_SPI_GetError                         0x08018fe3   Thumb Code     6  stm32f1xx_hal_spi.o(.text)
    HAL_SPI_Init                             0x08018ffd   Thumb Code   144  stm32f1xx_hal_spi_ex.o(.text)
    SPI_ISCRCErrorValid                      0x0801908d   Thumb Code    30  stm32f1xx_hal_spi_ex.o(.text)
    TIM_Base_SetConfig                       0x080190b5   Thumb Code   132  stm32f1xx_hal_tim.o(.text)
    HAL_TIM_Base_Init                        0x08019139   Thumb Code   150  stm32f1xx_hal_tim.o(.text)
    HAL_TIM_Base_MspDeInit                   0x080191cf   Thumb Code     2  stm32f1xx_hal_tim.o(.text)
    HAL_TIM_Base_DeInit                      0x080191d1   Thumb Code    70  stm32f1xx_hal_tim.o(.text)
    HAL_TIM_Base_Start                       0x08019219   Thumb Code    30  stm32f1xx_hal_tim.o(.text)
    HAL_TIM_Base_Stop                        0x08019237   Thumb Code    56  stm32f1xx_hal_tim.o(.text)
    HAL_TIM_Base_Start_IT                    0x0801926f   Thumb Code    30  stm32f1xx_hal_tim.o(.text)
    HAL_TIM_Base_Stop_IT                     0x0801928d   Thumb Code    56  stm32f1xx_hal_tim.o(.text)
    HAL_TIM_ErrorCallback                    0x080192c5   Thumb Code     2  stm32f1xx_hal_tim.o(.text)
    TIM_DMAError                             0x080192c7   Thumb Code    20  stm32f1xx_hal_tim.o(.text)
    HAL_TIM_Base_Start_DMA                   0x080192f1   Thumb Code    96  stm32f1xx_hal_tim.o(.text)
    HAL_TIM_Base_Stop_DMA                    0x08019351   Thumb Code    62  stm32f1xx_hal_tim.o(.text)
    HAL_TIM_OC_MspInit                       0x0801938f   Thumb Code     2  stm32f1xx_hal_tim.o(.text)
    HAL_TIM_OC_Init                          0x08019391   Thumb Code    52  stm32f1xx_hal_tim.o(.text)
    HAL_TIM_OC_MspDeInit                     0x080193c5   Thumb Code     2  stm32f1xx_hal_tim.o(.text)
    HAL_TIM_OC_DeInit                        0x080193c7   Thumb Code    70  stm32f1xx_hal_tim.o(.text)
    TIM_CCxChannelCmd                        0x0801940d   Thumb Code    28  stm32f1xx_hal_tim.o(.text)
    HAL_TIM_OC_Start                         0x08019429   Thumb Code    68  stm32f1xx_hal_tim.o(.text)
    HAL_TIM_OC_Stop                          0x0801946d   Thumb Code   152  stm32f1xx_hal_tim.o(.text)
    HAL_TIM_OC_Start_IT                      0x08019505   Thumb Code   144  stm32f1xx_hal_tim.o(.text)
    HAL_TIM_OC_Stop_IT                       0x08019595   Thumb Code   196  stm32f1xx_hal_tim.o(.text)
    HAL_TIM_PWM_PulseFinishedCallback        0x08019659   Thumb Code     2  stm32f1xx_hal_tim.o(.text)
    TIM_DMADelayPulseCplt                    0x0801965b   Thumb Code    70  stm32f1xx_hal_tim.o(.text)
    HAL_TIM_OC_Start_DMA                     0x080196a1   Thumb Code   310  stm32f1xx_hal_tim.o(.text)
    HAL_TIM_OC_Stop_DMA                      0x080197d7   Thumb Code   202  stm32f1xx_hal_tim.o(.text)
    HAL_TIM_PWM_MspInit                      0x080198a1   Thumb Code     2  stm32f1xx_hal_tim.o(.text)
    HAL_TIM_PWM_Init                         0x080198a3   Thumb Code    52  stm32f1xx_hal_tim.o(.text)
    HAL_TIM_PWM_MspDeInit                    0x080198d7   Thumb Code     2  stm32f1xx_hal_tim.o(.text)
    HAL_TIM_PWM_DeInit                       0x080198d9   Thumb Code    70  stm32f1xx_hal_tim.o(.text)
    HAL_TIM_PWM_Start                        0x0801991f   Thumb Code    78  stm32f1xx_hal_tim.o(.text)
    HAL_TIM_PWM_Stop                         0x0801996d   Thumb Code   126  stm32f1xx_hal_tim.o(.text)
    HAL_TIM_PWM_Start_IT                     0x080199eb   Thumb Code   144  stm32f1xx_hal_tim.o(.text)
    HAL_TIM_PWM_Stop_IT                      0x08019a7b   Thumb Code   196  stm32f1xx_hal_tim.o(.text)
    HAL_TIM_PWM_Start_DMA                    0x08019b3f   Thumb Code   310  stm32f1xx_hal_tim.o(.text)
    HAL_TIM_PWM_Stop_DMA                     0x08019c75   Thumb Code   202  stm32f1xx_hal_tim.o(.text)
    HAL_TIM_IC_Init                          0x08019d41   Thumb Code    60  stm32f1xx_hal_tim.o(.text)
    HAL_TIM_IC_MspDeInit                     0x08019d7d   Thumb Code     2  stm32f1xx_hal_tim.o(.text)
    HAL_TIM_IC_DeInit                        0x08019d7f   Thumb Code    70  stm32f1xx_hal_tim.o(.text)
    HAL_TIM_IC_Start                         0x08019dc5   Thumb Code    32  stm32f1xx_hal_tim.o(.text)
    HAL_TIM_IC_Stop                          0x08019de5   Thumb Code    58  stm32f1xx_hal_tim.o(.text)
    HAL_TIM_IC_Start_IT                      0x08019e1f   Thumb Code   108  stm32f1xx_hal_tim.o(.text)
    HAL_TIM_IC_Stop_IT                       0x08019e8b   Thumb Code   134  stm32f1xx_hal_tim.o(.text)
    TIM_DMACaptureCplt                       0x08019f13   Thumb Code    70  stm32f1xx_hal_tim.o(.text)
    HAL_TIM_IC_Start_DMA                     0x08019f59   Thumb Code   274  stm32f1xx_hal_tim.o(.text)
    HAL_TIM_IC_Stop_DMA                      0x0801a06b   Thumb Code   140  stm32f1xx_hal_tim.o(.text)
    HAL_TIM_OnePulse_MspInit                 0x0801a0f7   Thumb Code     2  stm32f1xx_hal_tim.o(.text)
    HAL_TIM_OnePulse_Init                    0x0801a0f9   Thumb Code    76  stm32f1xx_hal_tim.o(.text)
    HAL_TIM_OnePulse_MspDeInit               0x0801a145   Thumb Code     2  stm32f1xx_hal_tim.o(.text)
    HAL_TIM_OnePulse_DeInit                  0x0801a147   Thumb Code    70  stm32f1xx_hal_tim.o(.text)
    HAL_TIM_OnePulse_Start                   0x0801a18d   Thumb Code    66  stm32f1xx_hal_tim.o(.text)
    HAL_TIM_OnePulse_Stop                    0x0801a1cf   Thumb Code   130  stm32f1xx_hal_tim.o(.text)
    HAL_TIM_OnePulse_Start_IT                0x0801a251   Thumb Code    90  stm32f1xx_hal_tim.o(.text)
    HAL_TIM_OnePulse_Stop_IT                 0x0801a2ab   Thumb Code   154  stm32f1xx_hal_tim.o(.text)
    HAL_TIM_Encoder_MspInit                  0x0801a345   Thumb Code     2  stm32f1xx_hal_tim.o(.text)
    HAL_TIM_Encoder_Init                     0x0801a347   Thumb Code   180  stm32f1xx_hal_tim.o(.text)
    HAL_TIM_Encoder_MspDeInit                0x0801a3fb   Thumb Code     2  stm32f1xx_hal_tim.o(.text)
    HAL_TIM_Encoder_DeInit                   0x0801a3fd   Thumb Code    70  stm32f1xx_hal_tim.o(.text)
    HAL_TIM_Encoder_Start                    0x0801a443   Thumb Code    78  stm32f1xx_hal_tim.o(.text)
    HAL_TIM_Encoder_Stop                     0x0801a491   Thumb Code   104  stm32f1xx_hal_tim.o(.text)
    HAL_TIM_Encoder_Start_IT                 0x0801a4f9   Thumb Code   126  stm32f1xx_hal_tim.o(.text)
    HAL_TIM_Encoder_Stop_IT                  0x0801a577   Thumb Code   162  stm32f1xx_hal_tim.o(.text)
    HAL_TIM_Encoder_Start_DMA                0x0801a619   Thumb Code   328  stm32f1xx_hal_tim.o(.text)
    HAL_TIM_Encoder_Stop_DMA                 0x0801a761   Thumb Code   152  stm32f1xx_hal_tim.o(.text)
    HAL_TIM_TriggerCallback                  0x0801a7f9   Thumb Code     2  stm32f1xx_hal_tim.o(.text)
    HAL_TIM_OC_DelayElapsedCallback          0x0801a7fb   Thumb Code     2  stm32f1xx_hal_tim.o(.text)
    HAL_TIM_IRQHandler                       0x0801a7fd   Thumb Code   406  stm32f1xx_hal_tim.o(.text)
    TIM_OC2_SetConfig                        0x0801aa65   Thumb Code   120  stm32f1xx_hal_tim.o(.text)
    HAL_TIM_OC_ConfigChannel                 0x0801ab4b   Thumb Code   116  stm32f1xx_hal_tim.o(.text)
    TIM_TI1_SetConfig                        0x0801ac79   Thumb Code   106  stm32f1xx_hal_tim.o(.text)
    HAL_TIM_IC_ConfigChannel                 0x0801ace3   Thumb Code   224  stm32f1xx_hal_tim.o(.text)
    HAL_TIM_PWM_ConfigChannel                0x0801adc3   Thumb Code   286  stm32f1xx_hal_tim.o(.text)
    HAL_TIM_OnePulse_ConfigChannel           0x0801aee1   Thumb Code   286  stm32f1xx_hal_tim.o(.text)
    HAL_TIM_DMABurst_WriteStart              0x0801b013   Thumb Code   366  stm32f1xx_hal_tim.o(.text)
    HAL_TIM_DMABurst_WriteStop               0x0801b181   Thumb Code   128  stm32f1xx_hal_tim.o(.text)
    HAL_TIM_DMABurst_ReadStart               0x0801b201   Thumb Code   366  stm32f1xx_hal_tim.o(.text)
    HAL_TIM_DMABurst_ReadStop                0x0801b36f   Thumb Code   128  stm32f1xx_hal_tim.o(.text)
    HAL_TIM_GenerateEvent                    0x0801b3ef   Thumb Code    54  stm32f1xx_hal_tim.o(.text)
    HAL_TIM_ConfigOCrefClear                 0x0801b43d   Thumb Code   272  stm32f1xx_hal_tim.o(.text)
    HAL_TIM_ConfigClockSource                0x0801b5b7   Thumb Code   306  stm32f1xx_hal_tim.o(.text)
    HAL_TIM_ConfigTI1Input                   0x0801b6e9   Thumb Code    24  stm32f1xx_hal_tim.o(.text)
    HAL_TIM_SlaveConfigSynchronization       0x0801b7a5   Thumb Code    86  stm32f1xx_hal_tim.o(.text)
    HAL_TIM_SlaveConfigSynchronization_IT    0x0801b7fb   Thumb Code    86  stm32f1xx_hal_tim.o(.text)
    HAL_TIM_ReadCapturedValue                0x0801b851   Thumb Code    84  stm32f1xx_hal_tim.o(.text)
    HAL_TIM_Base_GetState                    0x0801b8a5   Thumb Code     8  stm32f1xx_hal_tim.o(.text)
    HAL_TIM_OC_GetState                      0x0801b8ad   Thumb Code     8  stm32f1xx_hal_tim.o(.text)
    HAL_TIM_PWM_GetState                     0x0801b8b5   Thumb Code     8  stm32f1xx_hal_tim.o(.text)
    HAL_TIM_IC_GetState                      0x0801b8bd   Thumb Code     8  stm32f1xx_hal_tim.o(.text)
    HAL_TIM_OnePulse_GetState                0x0801b8c5   Thumb Code     8  stm32f1xx_hal_tim.o(.text)
    HAL_TIM_Encoder_GetState                 0x0801b8cd   Thumb Code     8  stm32f1xx_hal_tim.o(.text)
    HAL_TIMEx_HallSensor_MspInit             0x0801b8d5   Thumb Code     2  stm32f1xx_hal_tim_ex.o(.text)
    HAL_TIMEx_HallSensor_Init                0x0801b8d7   Thumb Code   208  stm32f1xx_hal_tim_ex.o(.text)
    HAL_TIMEx_HallSensor_MspDeInit           0x0801b9a7   Thumb Code     2  stm32f1xx_hal_tim_ex.o(.text)
    HAL_TIMEx_HallSensor_DeInit              0x0801b9a9   Thumb Code    70  stm32f1xx_hal_tim_ex.o(.text)
    HAL_TIMEx_HallSensor_Start               0x0801b9ef   Thumb Code    30  stm32f1xx_hal_tim_ex.o(.text)
    HAL_TIMEx_HallSensor_Stop                0x0801ba0d   Thumb Code    56  stm32f1xx_hal_tim_ex.o(.text)
    HAL_TIMEx_HallSensor_Start_IT            0x0801ba45   Thumb Code    42  stm32f1xx_hal_tim_ex.o(.text)
    HAL_TIMEx_HallSensor_Stop_IT             0x0801ba6f   Thumb Code    68  stm32f1xx_hal_tim_ex.o(.text)
    HAL_TIMEx_HallSensor_Start_DMA           0x0801bab3   Thumb Code   104  stm32f1xx_hal_tim_ex.o(.text)
    HAL_TIMEx_HallSensor_Stop_DMA            0x0801bb1b   Thumb Code    68  stm32f1xx_hal_tim_ex.o(.text)
    HAL_TIMEx_OCN_Start                      0x0801bb7b   Thumb Code    44  stm32f1xx_hal_tim_ex.o(.text)
    HAL_TIMEx_OCN_Stop                       0x0801bba7   Thumb Code    96  stm32f1xx_hal_tim_ex.o(.text)
    HAL_TIMEx_OCN_Start_IT                   0x0801bc07   Thumb Code   114  stm32f1xx_hal_tim_ex.o(.text)
    HAL_TIMEx_OCN_Stop_IT                    0x0801bc79   Thumb Code   180  stm32f1xx_hal_tim_ex.o(.text)
    HAL_TIMEx_OCN_Start_DMA                  0x0801bd2d   Thumb Code   224  stm32f1xx_hal_tim_ex.o(.text)
    HAL_TIMEx_OCN_Stop_DMA                   0x0801be0d   Thumb Code   160  stm32f1xx_hal_tim_ex.o(.text)
    HAL_TIMEx_PWMN_Start                     0x0801bead   Thumb Code    56  stm32f1xx_hal_tim_ex.o(.text)
    HAL_TIMEx_PWMN_Stop                      0x0801bee5   Thumb Code    96  stm32f1xx_hal_tim_ex.o(.text)
    HAL_TIMEx_PWMN_Start_IT                  0x0801bf45   Thumb Code   114  stm32f1xx_hal_tim_ex.o(.text)
    HAL_TIMEx_PWMN_Stop_IT                   0x0801bfb7   Thumb Code   180  stm32f1xx_hal_tim_ex.o(.text)
    HAL_TIMEx_PWMN_Start_DMA                 0x0801c06b   Thumb Code   224  stm32f1xx_hal_tim_ex.o(.text)
    HAL_TIMEx_PWMN_Stop_DMA                  0x0801c14b   Thumb Code   160  stm32f1xx_hal_tim_ex.o(.text)
    HAL_TIMEx_OnePulseN_Start                0x0801c1eb   Thumb Code    32  stm32f1xx_hal_tim_ex.o(.text)
    HAL_TIMEx_OnePulseN_Stop                 0x0801c20b   Thumb Code    96  stm32f1xx_hal_tim_ex.o(.text)
    HAL_TIMEx_OnePulseN_Start_IT             0x0801c26b   Thumb Code    56  stm32f1xx_hal_tim_ex.o(.text)
    HAL_TIMEx_OnePulseN_Stop_IT              0x0801c2a3   Thumb Code   120  stm32f1xx_hal_tim_ex.o(.text)
    HAL_TIMEx_ConfigCommutationEvent         0x0801c31b   Thumb Code   110  stm32f1xx_hal_tim_ex.o(.text)
    HAL_TIMEx_ConfigCommutationEvent_IT      0x0801c389   Thumb Code   122  stm32f1xx_hal_tim_ex.o(.text)
    HAL_TIMEx_CommutationCallback            0x0801c403   Thumb Code     2  stm32f1xx_hal_tim_ex.o(.text)
    TIMEx_DMACommutationCplt                 0x0801c405   Thumb Code    20  stm32f1xx_hal_tim_ex.o(.text)
    HAL_TIMEx_ConfigCommutationEvent_DMA     0x0801c419   Thumb Code   146  stm32f1xx_hal_tim_ex.o(.text)
    HAL_TIMEx_ConfigBreakDeadTime            0x0801c4ab   Thumb Code   126  stm32f1xx_hal_tim_ex.o(.text)
    HAL_TIMEx_MasterConfigSynchronization    0x0801c529   Thumb Code    98  stm32f1xx_hal_tim_ex.o(.text)
    HAL_TIMEx_BreakCallback                  0x0801c58b   Thumb Code     2  stm32f1xx_hal_tim_ex.o(.text)
    HAL_TIMEx_HallSensor_GetState            0x0801c58d   Thumb Code     8  stm32f1xx_hal_tim_ex.o(.text)
    HAL_UART_Init                            0x0801c759   Thumb Code   114  stm32f1xx_hal_uart.o(.text)
    HAL_HalfDuplex_Init                      0x0801c7cb   Thumb Code   118  stm32f1xx_hal_uart.o(.text)
    HAL_LIN_Init                             0x0801c841   Thumb Code   134  stm32f1xx_hal_uart.o(.text)
    HAL_MultiProcessor_Init                  0x0801c8c7   Thumb Code   138  stm32f1xx_hal_uart.o(.text)
    HAL_UART_DeInit                          0x0801c953   Thumb Code    46  stm32f1xx_hal_uart.o(.text)
    HAL_UART_Transmit                        0x0801c9f1   Thumb Code   214  stm32f1xx_hal_uart.o(.text)
    HAL_UART_Receive                         0x0801cac7   Thumb Code   222  stm32f1xx_hal_uart.o(.text)
    HAL_UART_Transmit_IT                     0x0801cba5   Thumb Code    88  stm32f1xx_hal_uart.o(.text)
    HAL_UART_Receive_IT                      0x0801cbfd   Thumb Code   112  stm32f1xx_hal_uart.o(.text)
    HAL_UART_ErrorCallback                   0x0801cc6d   Thumb Code     2  stm32f1xx_hal_uart.o(.text)
    HAL_UART_TxHalfCpltCallback              0x0801ccf3   Thumb Code     2  stm32f1xx_hal_uart.o(.text)
    HAL_UART_TxCpltCallback                  0x0801cd03   Thumb Code     2  stm32f1xx_hal_uart.o(.text)
    HAL_UART_Transmit_DMA                    0x0801cd3b   Thumb Code   142  stm32f1xx_hal_uart.o(.text)
    HAL_UART_RxHalfCpltCallback              0x0801cdc9   Thumb Code     2  stm32f1xx_hal_uart.o(.text)
    HAL_UART_RxCpltCallback                  0x0801cdd9   Thumb Code     2  stm32f1xx_hal_uart.o(.text)
    HAL_UART_Receive_DMA                     0x0801ce21   Thumb Code   182  stm32f1xx_hal_uart.o(.text)
    HAL_UART_DMAPause                        0x0801ced7   Thumb Code   124  stm32f1xx_hal_uart.o(.text)
    HAL_UART_DMAResume                       0x0801cf53   Thumb Code   126  stm32f1xx_hal_uart.o(.text)
    HAL_UART_DMAStop                         0x0801cfd1   Thumb Code   102  stm32f1xx_hal_uart.o(.text)
    HAL_UART_Abort                           0x0801d037   Thumb Code   126  stm32f1xx_hal_uart.o(.text)
    HAL_UART_AbortTransmit                   0x0801d0b5   Thumb Code    68  stm32f1xx_hal_uart.o(.text)
    HAL_UART_AbortReceive                    0x0801d0f9   Thumb Code    80  stm32f1xx_hal_uart.o(.text)
    HAL_UART_AbortCpltCallback               0x0801d149   Thumb Code     2  stm32f1xx_hal_uart.o(.text)
    HAL_UART_Abort_IT                        0x0801d1c9   Thumb Code   208  stm32f1xx_hal_uart.o(.text)
    HAL_UART_AbortTransmitCpltCallback       0x0801d299   Thumb Code     2  stm32f1xx_hal_uart.o(.text)
    HAL_UART_AbortTransmit_IT                0x0801d2b3   Thumb Code   102  stm32f1xx_hal_uart.o(.text)
    HAL_UART_AbortReceiveCpltCallback        0x0801d319   Thumb Code     2  stm32f1xx_hal_uart.o(.text)
    HAL_UART_AbortReceive_IT                 0x0801d333   Thumb Code   114  stm32f1xx_hal_uart.o(.text)
    HAL_UART_IRQHandler                      0x0801d4e7   Thumb Code   348  stm32f1xx_hal_uart.o(.text)
    HAL_LIN_SendBreak                        0x0801d643   Thumb Code    62  stm32f1xx_hal_uart.o(.text)
    HAL_MultiProcessor_EnterMuteMode         0x0801d681   Thumb Code    62  stm32f1xx_hal_uart.o(.text)
    HAL_MultiProcessor_ExitMuteMode          0x0801d6bf   Thumb Code    62  stm32f1xx_hal_uart.o(.text)
    HAL_HalfDuplex_EnableTransmitter         0x0801d6fd   Thumb Code    68  stm32f1xx_hal_uart.o(.text)
    HAL_HalfDuplex_EnableReceiver            0x0801d741   Thumb Code    68  stm32f1xx_hal_uart.o(.text)
    HAL_UART_GetState                        0x0801d785   Thumb Code    20  stm32f1xx_hal_uart.o(.text)
    HAL_UART_GetError                        0x0801d799   Thumb Code     6  stm32f1xx_hal_uart.o(.text)
    HAL_InitTick                             0x0801d7a3   Thumb Code    64  stm32f1xx_hal.o(.text)
    HAL_Init                                 0x0801d7e3   Thumb Code    34  stm32f1xx_hal.o(.text)
    HAL_MspDeInit                            0x0801d805   Thumb Code     2  stm32f1xx_hal.o(.text)
    HAL_DeInit                               0x0801d807   Thumb Code    30  stm32f1xx_hal.o(.text)
    HAL_IncTick                              0x0801d825   Thumb Code    16  stm32f1xx_hal.o(.text)
    HAL_GetTick                              0x0801d835   Thumb Code     6  stm32f1xx_hal.o(.text)
    HAL_GetTickPrio                          0x0801d83b   Thumb Code     6  stm32f1xx_hal.o(.text)
    HAL_SetTickFreq                          0x0801d841   Thumb Code    32  stm32f1xx_hal.o(.text)
    HAL_GetTickFreq                          0x0801d861   Thumb Code     6  stm32f1xx_hal.o(.text)
    HAL_Delay                                0x0801d867   Thumb Code    36  stm32f1xx_hal.o(.text)
    HAL_SuspendTick                          0x0801d88b   Thumb Code    18  stm32f1xx_hal.o(.text)
    HAL_ResumeTick                           0x0801d89d   Thumb Code    18  stm32f1xx_hal.o(.text)
    HAL_GetHalVersion                        0x0801d8af   Thumb Code     4  stm32f1xx_hal.o(.text)
    HAL_GetREVID                             0x0801d8b3   Thumb Code     8  stm32f1xx_hal.o(.text)
    HAL_GetDEVID                             0x0801d8bb   Thumb Code    10  stm32f1xx_hal.o(.text)
    HAL_DBGMCU_EnableDBGSleepMode            0x0801d8c5   Thumb Code    14  stm32f1xx_hal.o(.text)
    HAL_DBGMCU_DisableDBGSleepMode           0x0801d8d3   Thumb Code    14  stm32f1xx_hal.o(.text)
    HAL_DBGMCU_EnableDBGStopMode             0x0801d8e1   Thumb Code    14  stm32f1xx_hal.o(.text)
    HAL_DBGMCU_DisableDBGStopMode            0x0801d8ef   Thumb Code    14  stm32f1xx_hal.o(.text)
    HAL_DBGMCU_EnableDBGStandbyMode          0x0801d8fd   Thumb Code    14  stm32f1xx_hal.o(.text)
    HAL_DBGMCU_DisableDBGStandbyMode         0x0801d90b   Thumb Code    14  stm32f1xx_hal.o(.text)
    HAL_GetUID                               0x0801d919   Thumb Code    24  stm32f1xx_hal.o(.text)
    FSMC_NORSRAM_Init                        0x0801d955   Thumb Code   164  stm32f1xx_ll_fsmc.o(.text)
    FSMC_NORSRAM_DeInit                      0x0801d9f9   Thumb Code    56  stm32f1xx_ll_fsmc.o(.text)
    FSMC_NORSRAM_Timing_Init                 0x0801da31   Thumb Code    66  stm32f1xx_ll_fsmc.o(.text)
    FSMC_NORSRAM_Extended_Timing_Init        0x0801da73   Thumb Code    62  stm32f1xx_ll_fsmc.o(.text)
    FSMC_NORSRAM_WriteOperation_Enable       0x0801dab1   Thumb Code    18  stm32f1xx_ll_fsmc.o(.text)
    FSMC_NORSRAM_WriteOperation_Disable      0x0801dac3   Thumb Code    18  stm32f1xx_ll_fsmc.o(.text)
    FSMC_NAND_Init                           0x0801dad5   Thumb Code    96  stm32f1xx_ll_fsmc.o(.text)
    FSMC_NAND_CommonSpace_Timing_Init        0x0801db35   Thumb Code    62  stm32f1xx_ll_fsmc.o(.text)
    FSMC_NAND_AttributeSpace_Timing_Init     0x0801db73   Thumb Code    62  stm32f1xx_ll_fsmc.o(.text)
    FSMC_NAND_DeInit                         0x0801dbb1   Thumb Code    66  stm32f1xx_ll_fsmc.o(.text)
    FSMC_NAND_ECC_Enable                     0x0801dbf3   Thumb Code    28  stm32f1xx_ll_fsmc.o(.text)
    FSMC_NAND_ECC_Disable                    0x0801dc0f   Thumb Code    28  stm32f1xx_ll_fsmc.o(.text)
    FSMC_NAND_GetECC                         0x0801dc2b   Thumb Code    88  stm32f1xx_ll_fsmc.o(.text)
    FSMC_PCCARD_Init                         0x0801dc83   Thumb Code    36  stm32f1xx_ll_fsmc.o(.text)
    FSMC_PCCARD_CommonSpace_Timing_Init      0x0801dca7   Thumb Code    30  stm32f1xx_ll_fsmc.o(.text)
    FSMC_PCCARD_AttributeSpace_Timing_Init   0x0801dcc5   Thumb Code    30  stm32f1xx_ll_fsmc.o(.text)
    FSMC_PCCARD_IOSpace_Timing_Init          0x0801dce3   Thumb Code    30  stm32f1xx_ll_fsmc.o(.text)
    FSMC_PCCARD_DeInit                       0x0801dd01   Thumb Code    32  stm32f1xx_ll_fsmc.o(.text)
    HAL_SRAM_Init                            0x0801dd33   Thumb Code    88  stm32f1xx_hal_sram.o(.text)
    HAL_SRAM_MspDeInit                       0x0801dd8b   Thumb Code     2  stm32f1xx_hal_sram.o(.text)
    HAL_SRAM_DeInit                          0x0801dd8d   Thumb Code    34  stm32f1xx_hal_sram.o(.text)
    HAL_SRAM_DMA_XferCpltCallback            0x0801ddaf   Thumb Code     2  stm32f1xx_hal_sram.o(.text)
    HAL_SRAM_DMA_XferErrorCallback           0x0801ddb1   Thumb Code     2  stm32f1xx_hal_sram.o(.text)
    HAL_SRAM_Read_8b                         0x0801ddb3   Thumb Code    70  stm32f1xx_hal_sram.o(.text)
    HAL_SRAM_Write_8b                        0x0801ddf9   Thumb Code    82  stm32f1xx_hal_sram.o(.text)
    HAL_SRAM_Read_16b                        0x0801de4b   Thumb Code    70  stm32f1xx_hal_sram.o(.text)
    HAL_SRAM_Write_16b                       0x0801de91   Thumb Code    82  stm32f1xx_hal_sram.o(.text)
    HAL_SRAM_Read_32b                        0x0801dee3   Thumb Code    68  stm32f1xx_hal_sram.o(.text)
    HAL_SRAM_Write_32b                       0x0801df27   Thumb Code    80  stm32f1xx_hal_sram.o(.text)
    HAL_SRAM_Read_DMA                        0x0801df77   Thumb Code    86  stm32f1xx_hal_sram.o(.text)
    HAL_SRAM_Write_DMA                       0x0801dfcd   Thumb Code    98  stm32f1xx_hal_sram.o(.text)
    HAL_SRAM_WriteOperation_Enable           0x0801e02f   Thumb Code    54  stm32f1xx_hal_sram.o(.text)
    HAL_SRAM_WriteOperation_Disable          0x0801e065   Thumb Code    60  stm32f1xx_hal_sram.o(.text)
    HAL_SRAM_GetState                        0x0801e0a1   Thumb Code     8  stm32f1xx_hal_sram.o(.text)
    Reset_Handler                            0x0801e0b1   Thumb Code     8  startup_stm32f103xe.o(.text)
    SVC_Handler                              0x0801e0c3   Thumb Code     2  startup_stm32f103xe.o(.text)
    ADC1_2_IRQHandler                        0x0801e0cb   Thumb Code     0  startup_stm32f103xe.o(.text)
    ADC3_IRQHandler                          0x0801e0cb   Thumb Code     0  startup_stm32f103xe.o(.text)
    CAN1_RX1_IRQHandler                      0x0801e0cb   Thumb Code     0  startup_stm32f103xe.o(.text)
    CAN1_SCE_IRQHandler                      0x0801e0cb   Thumb Code     0  startup_stm32f103xe.o(.text)
    DMA1_Channel1_IRQHandler                 0x0801e0cb   Thumb Code     0  startup_stm32f103xe.o(.text)
    DMA1_Channel2_IRQHandler                 0x0801e0cb   Thumb Code     0  startup_stm32f103xe.o(.text)
    DMA1_Channel3_IRQHandler                 0x0801e0cb   Thumb Code     0  startup_stm32f103xe.o(.text)
    DMA1_Channel4_IRQHandler                 0x0801e0cb   Thumb Code     0  startup_stm32f103xe.o(.text)
    DMA1_Channel5_IRQHandler                 0x0801e0cb   Thumb Code     0  startup_stm32f103xe.o(.text)
    DMA1_Channel6_IRQHandler                 0x0801e0cb   Thumb Code     0  startup_stm32f103xe.o(.text)
    DMA1_Channel7_IRQHandler                 0x0801e0cb   Thumb Code     0  startup_stm32f103xe.o(.text)
    DMA2_Channel1_IRQHandler                 0x0801e0cb   Thumb Code     0  startup_stm32f103xe.o(.text)
    DMA2_Channel2_IRQHandler                 0x0801e0cb   Thumb Code     0  startup_stm32f103xe.o(.text)
    DMA2_Channel3_IRQHandler                 0x0801e0cb   Thumb Code     0  startup_stm32f103xe.o(.text)
    DMA2_Channel4_5_IRQHandler               0x0801e0cb   Thumb Code     0  startup_stm32f103xe.o(.text)
    FLASH_IRQHandler                         0x0801e0cb   Thumb Code     0  startup_stm32f103xe.o(.text)
    FSMC_IRQHandler                          0x0801e0cb   Thumb Code     0  startup_stm32f103xe.o(.text)
    I2C1_ER_IRQHandler                       0x0801e0cb   Thumb Code     0  startup_stm32f103xe.o(.text)
    I2C1_EV_IRQHandler                       0x0801e0cb   Thumb Code     0  startup_stm32f103xe.o(.text)
    I2C2_ER_IRQHandler                       0x0801e0cb   Thumb Code     0  startup_stm32f103xe.o(.text)
    I2C2_EV_IRQHandler                       0x0801e0cb   Thumb Code     0  startup_stm32f103xe.o(.text)
    PVD_IRQHandler                           0x0801e0cb   Thumb Code     0  startup_stm32f103xe.o(.text)
    RCC_IRQHandler                           0x0801e0cb   Thumb Code     0  startup_stm32f103xe.o(.text)
    RTC_Alarm_IRQHandler                     0x0801e0cb   Thumb Code     0  startup_stm32f103xe.o(.text)
    SDIO_IRQHandler                          0x0801e0cb   Thumb Code     0  startup_stm32f103xe.o(.text)
    SPI1_IRQHandler                          0x0801e0cb   Thumb Code     0  startup_stm32f103xe.o(.text)
    SPI2_IRQHandler                          0x0801e0cb   Thumb Code     0  startup_stm32f103xe.o(.text)
    SPI3_IRQHandler                          0x0801e0cb   Thumb Code     0  startup_stm32f103xe.o(.text)
    TAMPER_IRQHandler                        0x0801e0cb   Thumb Code     0  startup_stm32f103xe.o(.text)
    TIM1_BRK_IRQHandler                      0x0801e0cb   Thumb Code     0  startup_stm32f103xe.o(.text)
    TIM1_CC_IRQHandler                       0x0801e0cb   Thumb Code     0  startup_stm32f103xe.o(.text)
    TIM1_TRG_COM_IRQHandler                  0x0801e0cb   Thumb Code     0  startup_stm32f103xe.o(.text)
    TIM1_UP_IRQHandler                       0x0801e0cb   Thumb Code     0  startup_stm32f103xe.o(.text)
    TIM2_IRQHandler                          0x0801e0cb   Thumb Code     0  startup_stm32f103xe.o(.text)
    TIM3_IRQHandler                          0x0801e0cb   Thumb Code     0  startup_stm32f103xe.o(.text)
    TIM6_IRQHandler                          0x0801e0cb   Thumb Code     0  startup_stm32f103xe.o(.text)
    TIM7_IRQHandler                          0x0801e0cb   Thumb Code     0  startup_stm32f103xe.o(.text)
    TIM8_BRK_IRQHandler                      0x0801e0cb   Thumb Code     0  startup_stm32f103xe.o(.text)
    TIM8_CC_IRQHandler                       0x0801e0cb   Thumb Code     0  startup_stm32f103xe.o(.text)
    TIM8_TRG_COM_IRQHandler                  0x0801e0cb   Thumb Code     0  startup_stm32f103xe.o(.text)
    TIM8_UP_IRQHandler                       0x0801e0cb   Thumb Code     0  startup_stm32f103xe.o(.text)
    UART4_IRQHandler                         0x0801e0cb   Thumb Code     0  startup_stm32f103xe.o(.text)
    UART5_IRQHandler                         0x0801e0cb   Thumb Code     0  startup_stm32f103xe.o(.text)
    USART3_IRQHandler                        0x0801e0cb   Thumb Code     0  startup_stm32f103xe.o(.text)
    USBWakeUp_IRQHandler                     0x0801e0cb   Thumb Code     0  startup_stm32f103xe.o(.text)
    USB_HP_CAN1_TX_IRQHandler                0x0801e0cb   Thumb Code     0  startup_stm32f103xe.o(.text)
    USB_LP_CAN1_RX0_IRQHandler               0x0801e0cb   Thumb Code     0  startup_stm32f103xe.o(.text)
    WWDG_IRQHandler                          0x0801e0cb   Thumb Code     0  startup_stm32f103xe.o(.text)
    rt_device_pin_register                   0x0801e185   Thumb Code    58  pin.o(.text)
    rt_pin_attach_irq                        0x0801e1bf   Thumb Code    60  pin.o(.text)
    rt_pin_detach_irq                        0x0801e1fb   Thumb Code    46  pin.o(.text)
    rt_pin_irq_enable                        0x0801e229   Thumb Code    50  pin.o(.text)
    rt_pin_mode                              0x0801e25b   Thumb Code    38  pin.o(.text)
    rt_pin_write                             0x0801e281   Thumb Code    38  pin.o(.text)
    rt_pin_read                              0x0801e2a7   Thumb Code    34  pin.o(.text)
    rt_hw_serial_register                    0x0801e6f3   Thumb Code   212  serial.o(.text)
    rt_hw_serial_isr                         0x0801e7c7   Thumb Code   220  serial.o(.text)
    rt_completion_init                       0x0801e9c5   Thumb Code    42  completion.o(.text)
    rt_completion_wait                       0x0801e9ef   Thumb Code   198  completion.o(.text)
    rt_completion_done                       0x0801eab5   Thumb Code    76  completion.o(.text)
    finsh_set_prompt                         0x0801eb91   Thumb Code    64  shell.o(.text)
    finsh_get_prompt                         0x0801ebd1   Thumb Code    84  shell.o(.text)
    finsh_get_prompt_mode                    0x0801ec25   Thumb Code    32  shell.o(.text)
    finsh_set_prompt_mode                    0x0801ec45   Thumb Code    42  shell.o(.text)
    finsh_set_device                         0x0801eccd   Thumb Code   156  shell.o(.text)
    finsh_get_device                         0x0801ed69   Thumb Code    28  shell.o(.text)
    finsh_set_echo                           0x0801ed85   Thumb Code    42  shell.o(.text)
    finsh_get_echo                           0x0801edaf   Thumb Code    32  shell.o(.text)
    finsh_run_line                           0x0801ee01   Thumb Code   164  shell.o(.text)
    finsh_thread_entry                       0x0801f051   Thumb Code  1356  shell.o(.text)
    finsh_system_function_init               0x0801f59d   Thumb Code    10  shell.o(.text)
    finsh_system_var_init                    0x0801f5a7   Thumb Code    10  shell.o(.text)
    finsh_system_init                        0x0801f5b1   Thumb Code   110  shell.o(.text)
    hello                                    0x0801f685   Thumb Code    12  cmd.o(.text)
    version                                  0x0801f691   Thumb Code    10  cmd.o(.text)
    list_thread                              0x0801f7a3   Thumb Code    18  cmd.o(.text)
    list_sem                                 0x0801f86b   Thumb Code    18  cmd.o(.text)
    list_event                               0x0801f8ff   Thumb Code    18  cmd.o(.text)
    list_mutex                               0x0801f973   Thumb Code    18  cmd.o(.text)
    list_mailbox                             0x0801fa1b   Thumb Code    18  cmd.o(.text)
    list_msgqueue                            0x0801fd83   Thumb Code    18  cmd.o(.text)
    list_memheap                             0x0801fde9   Thumb Code    18  cmd.o(.text)
    list_mempool                             0x0801fe85   Thumb Code    18  cmd.o(.text)
    list_timer                               0x0801ff0b   Thumb Code    18  cmd.o(.text)
    list_device                              0x0801ff91   Thumb Code    18  cmd.o(.text)
    list                                     0x0801ffa3   Thumb Code   126  cmd.o(.text)
    list_prefix                              0x08020063   Thumb Code  1126  cmd.o(.text)
    msh_is_used                              0x08020519   Thumb Code     6  msh.o(.text)
    msh_help                                 0x08020533   Thumb Code    66  msh.o(.text)
    msh_exec                                 0x08020713   Thumb Code    82  msh.o(.text)
    msh_auto_complete                        0x08020785   Thumb Code   138  msh.o(.text)
    cmd_ifconfig                             0x0802089d   Thumb Code    58  msh_cmd.o(.text)
    cmd_dns                                  0x080208d7   Thumb Code    72  msh_cmd.o(.text)
    cmd_netstat                              0x0802091f   Thumb Code     6  msh_cmd.o(.text)
    cmd_ps                                   0x08020925   Thumb Code    14  msh_cmd.o(.text)
    cmd_time                                 0x08020933   Thumb Code     6  msh_cmd.o(.text)
    cmd_free                                 0x08020939   Thumb Code    14  msh_cmd.o(.text)
    finsh_compiler_run                       0x08022187   Thumb Code    88  finsh_compiler.o(.text)
    finsh_error_init                         0x080221f1   Thumb Code     8  finsh_error.o(.text)
    finsh_error_set                          0x080221f9   Thumb Code    10  finsh_error.o(.text)
    finsh_errno                              0x08022203   Thumb Code     6  finsh_error.o(.text)
    finsh_error_string                       0x08022209   Thumb Code    10  finsh_error.o(.text)
    finsh_heap_init                          0x0802221d   Thumb Code    36  finsh_heap.o(.text)
    finsh_heap_free                          0x08022341   Thumb Code    34  finsh_heap.o(.text)
    finsh_heap_allocate                      0x080223b1   Thumb Code   106  finsh_heap.o(.text)
    finsh_init                               0x0802242d   Thumb Code    30  finsh_init.o(.text)
    finsh_stack_bottom                       0x0802244b   Thumb Code     6  finsh_init.o(.text)
    finsh_flush                              0x08022451   Thumb Code    22  finsh_init.o(.text)
    finsh_reset                              0x08022467   Thumb Code    24  finsh_init.o(.text)
    finsh_node_init                          0x08022485   Thumb Code    16  finsh_node.o(.text)
    finsh_node_allocate                      0x08022495   Thumb Code    56  finsh_node.o(.text)
    finsh_node_new_id                        0x080224cd   Thumb Code   118  finsh_node.o(.text)
    finsh_node_new_char                      0x08022543   Thumb Code    30  finsh_node.o(.text)
    finsh_node_new_int                       0x08022561   Thumb Code    30  finsh_node.o(.text)
    finsh_node_new_long                      0x0802257f   Thumb Code    30  finsh_node.o(.text)
    finsh_node_new_string                    0x0802259d   Thumb Code    74  finsh_node.o(.text)
    finsh_node_new_ptr                       0x080225e7   Thumb Code    30  finsh_node.o(.text)
    OP_no_op                                 0x08022609   Thumb Code     2  finsh_ops.o(.text)
    OP_add_byte                              0x0802260b   Thumb Code    42  finsh_ops.o(.text)
    OP_add_word                              0x08022635   Thumb Code    44  finsh_ops.o(.text)
    OP_add_dword                             0x08022661   Thumb Code    42  finsh_ops.o(.text)
    OP_sub_byte                              0x0802268b   Thumb Code    42  finsh_ops.o(.text)
    OP_sub_word                              0x080226b5   Thumb Code    44  finsh_ops.o(.text)
    OP_sub_dword                             0x080226e1   Thumb Code    42  finsh_ops.o(.text)
    OP_div_byte                              0x0802270b   Thumb Code    44  finsh_ops.o(.text)
    OP_div_word                              0x08022737   Thumb Code    46  finsh_ops.o(.text)
    OP_div_dword                             0x08022765   Thumb Code    44  finsh_ops.o(.text)
    OP_mod_byte                              0x08022791   Thumb Code    48  finsh_ops.o(.text)
    OP_mod_word                              0x080227c1   Thumb Code    48  finsh_ops.o(.text)
    OP_mod_dword                             0x080227f1   Thumb Code    48  finsh_ops.o(.text)
    OP_mul_byte                              0x08022821   Thumb Code    42  finsh_ops.o(.text)
    OP_mul_word                              0x0802284b   Thumb Code    44  finsh_ops.o(.text)
    OP_mul_dword                             0x08022877   Thumb Code    42  finsh_ops.o(.text)
    OP_and_byte                              0x080228a1   Thumb Code    42  finsh_ops.o(.text)
    OP_and_word                              0x080228cb   Thumb Code    42  finsh_ops.o(.text)
    OP_and_dword                             0x080228f5   Thumb Code    42  finsh_ops.o(.text)
    OP_or_byte                               0x0802291f   Thumb Code    42  finsh_ops.o(.text)
    OP_or_word                               0x08022949   Thumb Code    42  finsh_ops.o(.text)
    OP_or_dword                              0x08022973   Thumb Code    42  finsh_ops.o(.text)
    OP_xor_byte                              0x0802299d   Thumb Code    42  finsh_ops.o(.text)
    OP_xor_word                              0x080229c7   Thumb Code    46  finsh_ops.o(.text)
    OP_xor_dword                             0x080229f5   Thumb Code    42  finsh_ops.o(.text)
    OP_bw_byte                               0x08022a1f   Thumb Code    20  finsh_ops.o(.text)
    OP_bw_word                               0x08022a33   Thumb Code    20  finsh_ops.o(.text)
    OP_bw_dword                              0x08022a47   Thumb Code    20  finsh_ops.o(.text)
    OP_shl_byte                              0x08022a5b   Thumb Code    42  finsh_ops.o(.text)
    OP_shl_word                              0x08022a85   Thumb Code    44  finsh_ops.o(.text)
    OP_shl_dword                             0x08022ab1   Thumb Code    42  finsh_ops.o(.text)
    OP_shr_byte                              0x08022adb   Thumb Code    42  finsh_ops.o(.text)
    OP_shr_word                              0x08022b05   Thumb Code    42  finsh_ops.o(.text)
    OP_shr_dword                             0x08022b2f   Thumb Code    42  finsh_ops.o(.text)
    OP_ld_byte                               0x08022b59   Thumb Code    34  finsh_ops.o(.text)
    OP_ld_word                               0x08022b7b   Thumb Code    46  finsh_ops.o(.text)
    OP_ld_dword                              0x08022ba9   Thumb Code    64  finsh_ops.o(.text)
    OP_ld_value_byte                         0x08022be9   Thumb Code    66  finsh_ops.o(.text)
    OP_ld_value_byte_stack                   0x08022c2b   Thumb Code    20  finsh_ops.o(.text)
    OP_ld_value_word                         0x08022c3f   Thumb Code    66  finsh_ops.o(.text)
    OP_ld_value_word_stack                   0x08022c81   Thumb Code    20  finsh_ops.o(.text)
    OP_ld_value_dword                        0x08022c95   Thumb Code    66  finsh_ops.o(.text)
    OP_ld_value_dword_stack                  0x08022cd7   Thumb Code    20  finsh_ops.o(.text)
    OP_st_byte                               0x08022ceb   Thumb Code    30  finsh_ops.o(.text)
    OP_st_word                               0x08022d09   Thumb Code    30  finsh_ops.o(.text)
    OP_st_dword                              0x08022d27   Thumb Code    30  finsh_ops.o(.text)
    OP_pop                                   0x08022d45   Thumb Code    12  finsh_ops.o(.text)
    OP_call                                  0x08022d51   Thumb Code   906  finsh_ops.o(.text)
    finsh_parser_run                         0x08023971   Thumb Code   220  finsh_parser.o(.text)
    finsh_parser_init                        0x08023a4d   Thumb Code    16  finsh_parser.o(.text)
    finsh_var_init                           0x08023a5d   Thumb Code    14  finsh_var.o(.text)
    finsh_var_insert                         0x08023a6b   Thumb Code   114  finsh_var.o(.text)
    finsh_var_delete                         0x08023add   Thumb Code    68  finsh_var.o(.text)
    finsh_var_lookup                         0x08023b21   Thumb Code    58  finsh_var.o(.text)
    finsh_sysvar_append                      0x08023b5b   Thumb Code    62  finsh_var.o(.text)
    finsh_sysvar_lookup                      0x08023b99   Thumb Code    78  finsh_var.o(.text)
    finsh_vm_run                             0x08023bf9   Thumb Code    62  finsh_vm.o(.text)
    finsh_syscall_append                     0x08023c37   Thumb Code    54  finsh_vm.o(.text)
    finsh_syscall_lookup                     0x08023c6d   Thumb Code    78  finsh_vm.o(.text)
    finsh_token_init                         0x08023cdd   Thumb Code    20  finsh_token.o(.text)
    token_get_string                         0x080240f5   Thumb Code   120  finsh_token.o(.text)
    finsh_token_token                        0x0802432d   Thumb Code    24  finsh_token.o(.text)
    finsh_token_get_token                    0x08024345   Thumb Code    20  finsh_token.o(.text)
    libc_system_init                         0x0802435d   Thumb Code     4  libc.o(.text)
    _sys_open                                0x08024361   Thumb Code    54  stubs.o(.text)
    _sys_close                               0x08024397   Thumb Code     6  stubs.o(.text)
    _sys_read                                0x0802439d   Thumb Code    30  stubs.o(.text)
    _sys_write                               0x080243bb   Thumb Code    68  stubs.o(.text)
    _sys_seek                                0x080243ff   Thumb Code    18  stubs.o(.text)
    _sys_tmpnam                              0x08024411   Thumb Code     8  stubs.o(.text)
    _sys_command_string                      0x08024419   Thumb Code     6  stubs.o(.text)
    _ttywrch                                 0x0802441f   Thumb Code    16  stubs.o(.text)
    _sys_exit                                0x0802442f   Thumb Code     4  stubs.o(.text)
    _sys_flen                                0x08024433   Thumb Code    18  stubs.o(.text)
    _sys_istty                               0x08024445   Thumb Code    18  stubs.o(.text)
    remove                                   0x08024457   Thumb Code     8  stubs.o(.text)
    system                                   0x0802445f   Thumb Code    16  stubs.o(.text)
    fputc                                    0x0802446f   Thumb Code    26  stubs.o(.text)
    fgetc                                    0x08024489   Thumb Code     8  stubs.o(.text)
    netconn_new_with_proto_and_callback      0x080244a5   Thumb Code   200  api_lib.o(.text)
    netconn_delete                           0x0802456d   Thumb Code    36  api_lib.o(.text)
    netconn_getaddr                          0x08024591   Thumb Code   158  api_lib.o(.text)
    netconn_bind                             0x0802462f   Thumb Code    90  api_lib.o(.text)
    netconn_connect                          0x08024689   Thumb Code    90  api_lib.o(.text)
    netconn_disconnect                       0x080246e3   Thumb Code    80  api_lib.o(.text)
    netconn_listen_with_backlog              0x08024733   Thumb Code    82  api_lib.o(.text)
    netconn_accept                           0x08024785   Thumb Code   234  api_lib.o(.text)
    netconn_recv_tcp_pbuf                    0x08024bfb   Thumb Code    56  api_lib.o(.text)
    netconn_recv                             0x08024c33   Thumb Code   256  api_lib.o(.text)
    netconn_recved                           0x08024d33   Thumb Code    46  api_lib.o(.text)
    netconn_send                             0x08024d61   Thumb Code    88  api_lib.o(.text)
    netconn_sendto                           0x08024db9   Thumb Code    44  api_lib.o(.text)
    netconn_write_partly                     0x08024de5   Thumb Code   454  api_lib.o(.text)
    netconn_close                            0x08025005   Thumb Code    14  api_lib.o(.text)
    netconn_shutdown                         0x08025013   Thumb Code    36  api_lib.o(.text)
    netconn_join_leave_group                 0x08025037   Thumb Code   102  api_lib.o(.text)
    netconn_gethostbyname                    0x0802509d   Thumb Code   142  api_lib.o(.text)
    netconn_free                             0x08025cf3   Thumb Code   136  api_msg.o(.text)
    netconn_alloc                            0x08025d7b   Thumb Code   184  api_msg.o(.text)
    do_newconn                               0x08025f8b   Thumb Code    32  api_msg.o(.text)
    do_delconn                               0x08026075   Thumb Code   652  api_msg.o(.text)
    do_bind                                  0x08026301   Thumb Code   116  api_msg.o(.text)
    do_connect                               0x08026445   Thumb Code   230  api_msg.o(.text)
    do_disconnect                            0x0802652b   Thumb Code    46  api_msg.o(.text)
    do_listen                                0x08026559   Thumb Code   388  api_msg.o(.text)
    do_send                                  0x080266dd   Thumb Code   166  api_msg.o(.text)
    do_recv                                  0x08026783   Thumb Code    72  api_msg.o(.text)
    do_write                                 0x080267cb   Thumb Code   166  api_msg.o(.text)
    do_getaddr                               0x08026871   Thumb Code   198  api_msg.o(.text)
    do_close                                 0x08026937   Thumb Code   184  api_msg.o(.text)
    do_join_leave_group                      0x080269ef   Thumb Code    92  api_msg.o(.text)
    do_gethostbyname                         0x08026a99   Thumb Code    40  api_msg.o(.text)
    netbuf_new                               0x08026b19   Thumb Code    30  netbuf.o(.text)
    netbuf_delete                            0x08026b37   Thumb Code    32  netbuf.o(.text)
    netbuf_alloc                             0x08026b57   Thumb Code   104  netbuf.o(.text)
    netbuf_free                              0x08026bbf   Thumb Code    50  netbuf.o(.text)
    netbuf_ref                               0x08026bf1   Thumb Code    92  netbuf.o(.text)
    netbuf_chain                             0x08026c4d   Thumb Code    82  netbuf.o(.text)
    netbuf_data                              0x08026c9f   Thumb Code   124  netbuf.o(.text)
    netbuf_next                              0x08026d1b   Thumb Code    66  netbuf.o(.text)
    netbuf_first                             0x08026d5d   Thumb Code    38  netbuf.o(.text)
    lwip_socket_init                         0x08026ec1   Thumb Code     2  sockets.o(.text)
    lwip_tryget_socket                       0x08026f23   Thumb Code    12  sockets.o(.text)
    lwip_accept                              0x08026ffb   Thumb Code   486  sockets.o(.text)
    lwip_bind                                0x080271e1   Thumb Code   186  sockets.o(.text)
    lwip_close                               0x0802729b   Thumb Code   260  sockets.o(.text)
    lwip_connect                             0x0802739f   Thumb Code   206  sockets.o(.text)
    lwip_listen                              0x0802746d   Thumb Code   154  sockets.o(.text)
    lwip_recvfrom                            0x08027507   Thumb Code   762  sockets.o(.text)
    lwip_read                                0x08027801   Thumb Code    28  sockets.o(.text)
    lwip_recv                                0x0802781d   Thumb Code    34  sockets.o(.text)
    lwip_sendto                              0x0802783f   Thumb Code   280  sockets.o(.text)
    lwip_send                                0x08027957   Thumb Code   156  sockets.o(.text)
    lwip_socket                              0x08027b57   Thumb Code   172  sockets.o(.text)
    lwip_write                               0x08027c03   Thumb Code    22  sockets.o(.text)
    lwip_select                              0x08027db9   Thumb Code   780  sockets.o(.text)
    lwip_shutdown                            0x080280c5   Thumb Code   338  sockets.o(.text)
    lwip_getpeername                         0x08028295   Thumb Code    22  sockets.o(.text)
    lwip_getsockname                         0x080282ab   Thumb Code    22  sockets.o(.text)
    lwip_getsockopt                          0x080284e9   Thumb Code   430  sockets.o(.text)
    lwip_setsockopt                          0x08028913   Thumb Code   462  sockets.o(.text)
    lwip_ioctl                               0x08028ae1   Thumb Code   272  sockets.o(.text)
    lwip_fcntl                               0x08028bf1   Thumb Code   134  sockets.o(.text)
    tcpip_input                              0x08028d57   Thumb Code    72  tcpip.o(.text)
    tcpip_callback_with_block                0x08028d9f   Thumb Code    90  tcpip.o(.text)
    tcpip_timeout                            0x08028df9   Thumb Code    64  tcpip.o(.text)
    tcpip_untimeout                          0x08028e39   Thumb Code    56  tcpip.o(.text)
    tcpip_apimsg                             0x08028e71   Thumb Code    56  tcpip.o(.text)
    tcpip_netifapi                           0x08028ea9   Thumb Code    76  tcpip.o(.text)
    tcpip_callbackmsg_new                    0x08028ef5   Thumb Code    32  tcpip.o(.text)
    tcpip_callbackmsg_delete                 0x08028f15   Thumb Code    14  tcpip.o(.text)
    tcpip_trycallback                        0x08028f23   Thumb Code    28  tcpip.o(.text)
    tcpip_init                               0x08028f3f   Thumb Code    70  tcpip.o(.text)
    pbuf_free_callback                       0x08028f93   Thumb Code    16  tcpip.o(.text)
    mem_free_callback                        0x08028fa3   Thumb Code    16  tcpip.o(.text)
    sys_init                                 0x0802904d   Thumb Code     2  sys_arch.o(.text)
    sys_sem_new                              0x0802904f   Thumb Code   104  sys_arch.o(.text)
    sys_sem_free                             0x080290b7   Thumb Code    52  sys_arch.o(.text)
    sys_sem_signal                           0x080290eb   Thumb Code    12  sys_arch.o(.text)
    sys_arch_sem_wait                        0x080290f7   Thumb Code   116  sys_arch.o(.text)
    sys_sem_valid                            0x0802916b   Thumb Code     6  sys_arch.o(.text)
    sys_sem_set_invalid                      0x08029171   Thumb Code     6  sys_arch.o(.text)
    sys_mutex_new                            0x08029177   Thumb Code   102  sys_arch.o(.text)
    sys_mutex_lock                           0x080291dd   Thumb Code    58  sys_arch.o(.text)
    sys_mutex_unlock                         0x08029217   Thumb Code    12  sys_arch.o(.text)
    sys_mutex_free                           0x08029223   Thumb Code    54  sys_arch.o(.text)
    sys_mutex_valid                          0x08029259   Thumb Code     6  sys_arch.o(.text)
    sys_mutex_set_invalid                    0x0802925f   Thumb Code     6  sys_arch.o(.text)
    sys_mbox_new                             0x08029265   Thumb Code   106  sys_arch.o(.text)
    sys_mbox_free                            0x080292cf   Thumb Code    54  sys_arch.o(.text)
    sys_mbox_post                            0x08029305   Thumb Code    62  sys_arch.o(.text)
    sys_mbox_trypost                         0x08029343   Thumb Code    26  sys_arch.o(.text)
    sys_arch_assert                          0x0802935d   Thumb Code    38  sys_arch.o(.text)
    sys_arch_mbox_fetch                      0x08029383   Thumb Code   142  sys_arch.o(.text)
    sys_arch_mbox_tryfetch                   0x08029411   Thumb Code   288  sys_arch.o(.text)
    sys_mbox_valid                           0x08029531   Thumb Code     6  sys_arch.o(.text)
    sys_mbox_set_invalid                     0x08029537   Thumb Code     6  sys_arch.o(.text)
    sys_thread_new                           0x0802953d   Thumb Code   112  sys_arch.o(.text)
    sys_arch_protect                         0x080295ad   Thumb Code    12  sys_arch.o(.text)
    sys_arch_unprotect                       0x080295b9   Thumb Code    12  sys_arch.o(.text)
    sys_jiffies                              0x080295c5   Thumb Code     8  sys_arch.o(.text)
    sys_now                                  0x080295cd   Thumb Code     8  sys_arch.o(.text)
    lwip_htons                               0x080295e9   Thumb Code    12  def.o(.text)
    lwip_ntohs                               0x080295f5   Thumb Code    12  def.o(.text)
    lwip_htonl                               0x08029601   Thumb Code    26  def.o(.text)
    lwip_ntohl                               0x0802961b   Thumb Code    12  def.o(.text)
    dhcp_renew                               0x08029e97   Thumb Code   132  dhcp.o(.text)
    dhcp_coarse_tmr                          0x08029fdd   Thumb Code    62  dhcp.o(.text)
    dhcp_release                             0x0802a115   Thumb Code   160  dhcp.o(.text)
    dhcp_fine_tmr                            0x0802a369   Thumb Code    64  dhcp.o(.text)
    dhcp_set_struct                          0x0802a449   Thumb Code   244  dhcp.o(.text)
    dhcp_cleanup                             0x0802a53d   Thumb Code    50  dhcp.o(.text)
    dhcp_stop                                0x0802a56f   Thumb Code   108  dhcp.o(.text)
    dhcp_start                               0x0802abf5   Thumb Code   276  dhcp.o(.text)
    dhcp_inform                              0x0802ad09   Thumb Code   192  dhcp.o(.text)
    dhcp_network_changed                     0x0802adc9   Thumb Code   150  dhcp.o(.text)
    dhcp_arp_reply                           0x0802aedd   Thumb Code    68  dhcp.o(.text)
    dns_setserver                            0x0802af29   Thumb Code    28  dns.o(.text)
    dns_init                                 0x0802b107   Thumb Code    78  dns.o(.text)
    dns_getserver                            0x0802b155   Thumb Code    20  dns.o(.text)
    dns_tmr                                  0x0802b4a9   Thumb Code    14  dns.o(.text)
    dns_gethostbyname                        0x0802b5e7   Thumb Code    86  dns.o(.text)
    lwip_init                                0x0802b66d   Thumb Code    40  init.o(.text)
    memp_init                                0x0802b695   Thumb Code    82  memp.o(.text)
    memp_malloc                              0x0802b6e7   Thumb Code    98  memp.o(.text)
    memp_free                                0x0802b749   Thumb Code    68  memp.o(.text)
    netif_init                               0x0802b835   Thumb Code     2  netif.o(.text)
    netif_set_gw                             0x0802b837   Thumb Code    12  netif.o(.text)
    netif_set_netmask                        0x0802b843   Thumb Code    12  netif.o(.text)
    netif_set_ipaddr                         0x0802b84f   Thumb Code   110  netif.o(.text)
    netif_set_addr                           0x0802b8bd   Thumb Code    40  netif.o(.text)
    netif_add                                0x0802b8e5   Thumb Code   142  netif.o(.text)
    netif_set_default                        0x0802b973   Thumb Code     6  netif.o(.text)
    netif_set_down                           0x0802b979   Thumb Code    56  netif.o(.text)
    netif_remove                             0x0802b9b1   Thumb Code   106  netif.o(.text)
    netif_find                               0x0802ba1b   Thumb Code    64  netif.o(.text)
    netif_set_up                             0x0802ba5b   Thumb Code    86  netif.o(.text)
    netif_set_status_callback                0x0802bab1   Thumb Code     6  netif.o(.text)
    netif_set_link_up                        0x0802bab7   Thumb Code    82  netif.o(.text)
    netif_set_link_down                      0x0802bb09   Thumb Code    24  netif.o(.text)
    pbuf_free                                0x0802bbf5   Thumb Code   208  pbuf.o(.text)
    pbuf_alloc                               0x0802bcc5   Thumb Code   668  pbuf.o(.text)
    pbuf_realloc                             0x0802bf61   Thumb Code   702  pbuf.o(.text)
    pbuf_header                              0x0802c21f   Thumb Code   206  pbuf.o(.text)
    pbuf_clen                                0x0802c2ed   Thumb Code    18  pbuf.o(.text)
    pbuf_ref                                 0x0802c2ff   Thumb Code    22  pbuf.o(.text)
    pbuf_cat                                 0x0802c315   Thumb Code   138  pbuf.o(.text)
    pbuf_chain                               0x0802c39f   Thumb Code    22  pbuf.o(.text)
    pbuf_dechain                             0x0802c3b5   Thumb Code   122  pbuf.o(.text)
    pbuf_copy                                0x0802c42f   Thumb Code   810  pbuf.o(.text)
    pbuf_copy_partial                        0x0802c759   Thumb Code   190  pbuf.o(.text)
    pbuf_take                                0x0802c817   Thumb Code   210  pbuf.o(.text)
    pbuf_coalesce                            0x0802c8e9   Thumb Code    84  pbuf.o(.text)
    pbuf_get_at                              0x0802c93d   Thumb Code    46  pbuf.o(.text)
    pbuf_memcmp                              0x0802c96b   Thumb Code    96  pbuf.o(.text)
    pbuf_memfind                             0x0802c9cb   Thumb Code    76  pbuf.o(.text)
    pbuf_strstr                              0x0802ca17   Thumb Code    60  pbuf.o(.text)
    raw_input                                0x0802cb3d   Thumb Code   122  raw.o(.text)
    raw_bind                                 0x0802cbb7   Thumb Code    16  raw.o(.text)
    raw_connect                              0x0802cbc7   Thumb Code    16  raw.o(.text)
    raw_recv                                 0x0802cbd7   Thumb Code     6  raw.o(.text)
    raw_sendto                               0x0802cbdd   Thumb Code   214  raw.o(.text)
    raw_send                                 0x0802ccb3   Thumb Code    18  raw.o(.text)
    raw_remove                               0x0802ccc5   Thumb Code    60  raw.o(.text)
    raw_new                                  0x0802cd01   Thumb Code    42  raw.o(.text)
    tcp_init                                 0x0802cd95   Thumb Code     2  tcp.o(.text)
    tcp_seg_free                             0x0802cd97   Thumb Code    26  tcp.o(.text)
    tcp_segs_free                            0x0802cdb1   Thumb Code    24  tcp.o(.text)
    tcp_pcb_purge                            0x0802cdc9   Thumb Code    72  tcp.o(.text)
    tcp_slowtmr                              0x0802ce11   Thumb Code  1408  tcp.o(.text)
    tcp_pcb_remove                           0x0802d391   Thumb Code   222  tcp.o(.text)
    tcp_close                                0x0802d63b   Thumb Code    28  tcp.o(.text)
    tcp_update_rcv_ann_wnd                   0x0802d657   Thumb Code   106  tcp.o(.text)
    tcp_recved                               0x0802d6c1   Thumb Code   444  tcp.o(.text)
    tcp_recv_null                            0x0802d87d   Thumb Code    46  tcp.o(.text)
    tcp_process_refused_data                 0x0802d8ab   Thumb Code   144  tcp.o(.text)
    tcp_fasttmr                              0x0802d93b   Thumb Code   110  tcp.o(.text)
    tcp_tmr                                  0x0802d9a9   Thumb Code    30  tcp.o(.text)
    tcp_shutdown                             0x0802d9c7   Thumb Code    98  tcp.o(.text)
    tcp_abandon                              0x0802da29   Thumb Code   174  tcp.o(.text)
    tcp_abort                                0x0802dad7   Thumb Code    14  tcp.o(.text)
    tcp_bind                                 0x0802db45   Thumb Code   192  tcp.o(.text)
    tcp_listen_with_backlog                  0x0802dc0d   Thumb Code   260  tcp.o(.text)
    tcp_eff_send_mss                         0x0802dd11   Thumb Code   222  tcp.o(.text)
    tcp_next_iss                             0x0802ddef   Thumb Code    20  tcp.o(.text)
    tcp_connect                              0x0802de03   Thumb Code   420  tcp.o(.text)
    tcp_setprio                              0x0802dfa7   Thumb Code     4  tcp.o(.text)
    tcp_seg_copy                             0x0802dfab   Thumb Code    36  tcp.o(.text)
    tcp_alloc                                0x0802e04d   Thumb Code   174  tcp.o(.text)
    tcp_new                                  0x0802e0fb   Thumb Code    10  tcp.o(.text)
    tcp_arg                                  0x0802e105   Thumb Code     4  tcp.o(.text)
    tcp_recv                                 0x0802e109   Thumb Code    44  tcp.o(.text)
    tcp_sent                                 0x0802e135   Thumb Code    42  tcp.o(.text)
    tcp_err                                  0x0802e15f   Thumb Code    44  tcp.o(.text)
    tcp_accept                               0x0802e18b   Thumb Code     4  tcp.o(.text)
    tcp_poll                                 0x0802e18f   Thumb Code    50  tcp.o(.text)
    tcp_debug_state_str                      0x0802e1c1   Thumb Code   256  tcp.o(.text)
    tcp_input                                0x0802f935   Thumb Code  1632  tcp_in.o(.text)
    tcp_enqueue_flags                        0x080300ff   Thumb Code   406  tcp_out.o(.text)
    tcp_send_fin                             0x08030295   Thumb Code    74  tcp_out.o(.text)
    tcp_write                                0x0803054b   Thumb Code  1566  tcp_out.o(.text)
    tcp_send_empty_ack                       0x08030b69   Thumb Code    96  tcp_out.o(.text)
    tcp_output                               0x08030ca9   Thumb Code   664  tcp_out.o(.text)
    tcp_rst                                  0x08030f41   Thumb Code   172  tcp_out.o(.text)
    tcp_rexmit_rto                           0x08030fed   Thumb Code    58  tcp_out.o(.text)
    tcp_rexmit                               0x08031027   Thumb Code    90  tcp_out.o(.text)
    tcp_rexmit_fast                          0x08031081   Thumb Code   112  tcp_out.o(.text)
    tcp_keepalive                            0x080310f1   Thumb Code    86  tcp_out.o(.text)
    tcp_zero_window_probe                    0x08031147   Thumb Code   182  tcp_out.o(.text)
    sys_timeout                              0x080311fd   Thumb Code   176  timers.o(.text)
    tcp_timer_needed                         0x080312d5   Thumb Code    38  timers.o(.text)
    sys_timeouts_init                        0x08031367   Thumb Code    62  timers.o(.text)
    sys_untimeout                            0x080313a5   Thumb Code    90  timers.o(.text)
    sys_timeouts_mbox_fetch                  0x080313ff   Thumb Code   132  timers.o(.text)
    udp_init                                 0x08031525   Thumb Code     2  udp.o(.text)
    udp_input                                0x08031577   Thumb Code   542  udp.o(.text)
    udp_bind                                 0x08031795   Thumb Code   164  udp.o(.text)
    udp_sendto_if                            0x08031839   Thumb Code   498  udp.o(.text)
    udp_sendto                               0x08031a2b   Thumb Code    64  udp.o(.text)
    udp_send                                 0x08031a6b   Thumb Code    20  udp.o(.text)
    udp_connect                              0x08031a7f   Thumb Code    94  udp.o(.text)
    udp_disconnect                           0x08031add   Thumb Code    16  udp.o(.text)
    udp_recv                                 0x08031aed   Thumb Code     6  udp.o(.text)
    udp_remove                               0x08031af3   Thumb Code    60  udp.o(.text)
    udp_new                                  0x08031b2f   Thumb Code    28  udp.o(.text)
    icmp_input                               0x08031b51   Thumb Code   494  icmp.o(.text)
    icmp_dest_unreach                        0x08031dc9   Thumb Code    18  icmp.o(.text)
    igmp_init                                0x08031f39   Thumb Code    14  igmp.o(.text)
    igmp_lookfor_group                       0x08031f47   Thumb Code    40  igmp.o(.text)
    igmp_start                               0x08031fb7   Thumb Code    50  igmp.o(.text)
    igmp_stop                                0x08031fe9   Thumb Code    78  igmp.o(.text)
    igmp_report_groups                       0x0803207f   Thumb Code    32  igmp.o(.text)
    igmp_input                               0x080320e3   Thumb Code   248  igmp.o(.text)
    igmp_joingroup                           0x080322af   Thumb Code   356  igmp.o(.text)
    igmp_leavegroup                          0x08032413   Thumb Code   198  igmp.o(.text)
    igmp_tmr                                 0x080324ed   Thumb Code    38  igmp.o(.text)
    inet_chksum_pseudo                       0x0803265b   Thumb Code   162  inet_chksum.o(.text)
    inet_chksum_pseudo_partial               0x080326fd   Thumb Code   212  inet_chksum.o(.text)
    inet_chksum                              0x080327d1   Thumb Code    20  inet_chksum.o(.text)
    inet_chksum_pbuf                         0x080327e5   Thumb Code    86  inet_chksum.o(.text)
    ip_route                                 0x08032889   Thumb Code    76  ip.o(.text)
    ip_input                                 0x080328d5   Thumb Code   492  ip.o(.text)
    ip_output_if_opt                         0x08032ac1   Thumb Code   394  ip.o(.text)
    ip_output_if                             0x08032c4b   Thumb Code   198  ip.o(.text)
    ip_output                                0x08032d11   Thumb Code    86  ip.o(.text)
    ip4_addr_isbroadcast                     0x08032d69   Thumb Code    78  ip_addr.o(.text)
    ip4_addr_netmask_valid                   0x08032db7   Thumb Code    56  ip_addr.o(.text)
    ipaddr_aton                              0x08032def   Thumb Code   366  ip_addr.o(.text)
    ipaddr_addr                              0x08032f5d   Thumb Code    24  ip_addr.o(.text)
    ipaddr_ntoa_r                            0x08032f75   Thumb Code   168  ip_addr.o(.text)
    ipaddr_ntoa                              0x0803301d   Thumb Code    16  ip_addr.o(.text)
    etharp_tmr                               0x0803311d   Thumb Code   138  etharp.o(.text)
    etharp_cleanup_netif                     0x080335fd   Thumb Code    52  etharp.o(.text)
    etharp_find_addr                         0x08033631   Thumb Code   108  etharp.o(.text)
    etharp_request                           0x080338e1   Thumb Code    36  etharp.o(.text)
    etharp_query                             0x08033a3f   Thumb Code   504  etharp.o(.text)
    etharp_output                            0x08033c37   Thumb Code   390  etharp.o(.text)
    ethernet_input                           0x08033dbd   Thumb Code   298  etharp.o(.text)
    ethernetif_input                         0x08033f6f   Thumb Code    52  ethernetif.o(.text)
    ethernetif_init                          0x08033fa3   Thumb Code    58  ethernetif.o(.text)
    lwip_dm9000_input_task                   0x08034031   Thumb Code    12  lwip_comm.o(.text)
    lwip_comm_default_ip_set                 0x0803403d   Thumb Code   102  lwip_comm.o(.text)
    lwip_dhcp_task                           0x080340a3   Thumb Code   430  lwip_comm.o(.text)
    lwip_comm_dhcp_creat                     0x08034251   Thumb Code    62  lwip_comm.o(.text)
    lwip_comm_init                           0x0803428f   Thumb Code   212  lwip_comm.o(.text)
    lwip_comm_dhcp_delete                    0x08034363   Thumb Code    16  lwip_comm.o(.text)
    fs_open                                  0x080346c3   Thumb Code    70  fs.o(.text)
    fs_close                                 0x08034709   Thumb Code    12  fs.o(.text)
    fs_read                                  0x08034715   Thumb Code    62  fs.o(.text)
    fs_bytes_left                            0x08034753   Thumb Code    10  fs.o(.text)
    httpd_init                               0x080356dd   Thumb Code    18  httpd.o(.text)
    http_set_ssi_handler                     0x080356ef   Thumb Code   102  httpd.o(.text)
    http_set_cgi_handlers                    0x08035755   Thumb Code    70  httpd.o(.text)
    Temperate_Handler                        0x08035919   Thumb Code    46  httpd_cgi_ssi.o(.text)
    RTCTime_Handler                          0x08035947   Thumb Code    92  httpd_cgi_ssi.o(.text)
    RTCdate_Handler                          0x080359a3   Thumb Code   140  httpd_cgi_ssi.o(.text)
    Humidity_Handler                         0x08035a2f   Thumb Code    46  httpd_cgi_ssi.o(.text)
    Fire_Handler                             0x08035a5d   Thumb Code   148  httpd_cgi_ssi.o(.text)
    MQ_Handler                               0x08035af1   Thumb Code   148  httpd_cgi_ssi.o(.text)
    Light_sensor_Handler                     0x08035b85   Thumb Code   142  httpd_cgi_ssi.o(.text)
    LEDS_CGI_Handler                         0x08035c6f   Thumb Code   968  httpd_cgi_ssi.o(.text)
    BEEP_CGI_Handler                         0x08036037   Thumb Code  1210  httpd_cgi_ssi.o(.text)
    MODE_CGI_Handler                         0x080364f1   Thumb Code   806  httpd_cgi_ssi.o(.text)
    httpd_ssi_init                           0x08036817   Thumb Code    14  httpd_cgi_ssi.o(.text)
    httpd_cgi_init                           0x08036825   Thumb Code    12  httpd_cgi_ssi.o(.text)
    __aeabi_llsr                             0x08036849   Thumb Code    32  llushr.o(.text)
    _ll_ushift_r                             0x08036849   Thumb Code     0  llushr.o(.text)
    rand                                     0x08036869   Thumb Code    20  rand.o(.text)
    srand                                    0x0803687d   Thumb Code     6  rand.o(.text)
    __aeabi_memcpy                           0x0803688d   Thumb Code    36  memcpya.o(.text)
    __aeabi_memcpy4                          0x0803688d   Thumb Code     0  memcpya.o(.text)
    __aeabi_memcpy8                          0x0803688d   Thumb Code     0  memcpya.o(.text)
    __aeabi_memset                           0x080368b1   Thumb Code    14  memseta.o(.text)
    __aeabi_memset4                          0x080368b1   Thumb Code     0  memseta.o(.text)
    __aeabi_memset8                          0x080368b1   Thumb Code     0  memseta.o(.text)
    __aeabi_memclr                           0x080368bf   Thumb Code     4  memseta.o(.text)
    __aeabi_memclr4                          0x080368bf   Thumb Code     0  memseta.o(.text)
    __aeabi_memclr8                          0x080368bf   Thumb Code     0  memseta.o(.text)
    _memset$wrapper                          0x080368c3   Thumb Code    18  memseta.o(.text)
    strcat                                   0x080368d5   Thumb Code    24  strcat.o(.text)
    strstr                                   0x080368ed   Thumb Code    36  strstr.o(.text)
    strncpy                                  0x08036911   Thumb Code    24  strncpy.o(.text)
    strchr                                   0x08036929   Thumb Code    20  strchr.o(.text)
    strlen                                   0x0803693d   Thumb Code    14  strlen.o(.text)
    strcmp                                   0x0803694b   Thumb Code    28  strcmp.o(.text)
    memcmp                                   0x08036967   Thumb Code    26  memcmp.o(.text)
    strcpy                                   0x08036981   Thumb Code    18  strcpy.o(.text)
    strncmp                                  0x08036993   Thumb Code    30  strncmp.o(.text)
    atoi                                     0x080369b1   Thumb Code    26  atoi.o(.text)
    __aeabi_fadd                             0x080369cb   Thumb Code   164  fadd.o(.text)
    __aeabi_fsub                             0x08036a6f   Thumb Code     6  fadd.o(.text)
    __aeabi_frsub                            0x08036a75   Thumb Code     6  fadd.o(.text)
    __aeabi_fmul                             0x08036a7b   Thumb Code   100  fmul.o(.text)
    __aeabi_fdiv                             0x08036adf   Thumb Code   124  fdiv.o(.text)
    __aeabi_dadd                             0x08036b5b   Thumb Code   322  dadd.o(.text)
    __aeabi_dsub                             0x08036c9d   Thumb Code     6  dadd.o(.text)
    __aeabi_drsub                            0x08036ca3   Thumb Code     6  dadd.o(.text)
    __aeabi_dmul                             0x08036ca9   Thumb Code   228  dmul.o(.text)
    __aeabi_i2f                              0x08036d8d   Thumb Code    18  fflti.o(.text)
    __aeabi_ui2f                             0x08036d9f   Thumb Code    10  ffltui.o(.text)
    __aeabi_i2d                              0x08036da9   Thumb Code    34  dflti.o(.text)
    __aeabi_ui2d                             0x08036dcb   Thumb Code    26  dfltui.o(.text)
    __aeabi_f2iz                             0x08036de5   Thumb Code    50  ffixi.o(.text)
    __aeabi_f2uiz                            0x08036e17   Thumb Code    40  ffixui.o(.text)
    __aeabi_d2iz                             0x08036e3f   Thumb Code    62  dfixi.o(.text)
    __aeabi_d2uiz                            0x08036e7d   Thumb Code    50  dfixui.o(.text)
    __aeabi_f2d                              0x08036eaf   Thumb Code    38  f2d.o(.text)
    __aeabi_cdcmpeq                          0x08036ed5   Thumb Code     0  cdcmple.o(.text)
    __aeabi_cdcmple                          0x08036ed5   Thumb Code    48  cdcmple.o(.text)
    __aeabi_cdrcmple                         0x08036f05   Thumb Code    48  cdrcmple.o(.text)
    __aeabi_d2f                              0x08036f35   Thumb Code    56  d2f.o(.text)
    __aeabi_cfcmpeq                          0x08036f6d   Thumb Code     0  cfcmple.o(.text)
    __aeabi_cfcmple                          0x08036f6d   Thumb Code    20  cfcmple.o(.text)
    __aeabi_uidiv                            0x08036f81   Thumb Code     0  uidiv.o(.text)
    __aeabi_uidivmod                         0x08036f81   Thumb Code    44  uidiv.o(.text)
    __aeabi_uldivmod                         0x08036fad   Thumb Code    98  uldiv.o(.text)
    __aeabi_llsl                             0x0803700f   Thumb Code    30  llshl.o(.text)
    _ll_shift_l                              0x0803700f   Thumb Code     0  llshl.o(.text)
    __aeabi_lasr                             0x0803702d   Thumb Code    36  llsshr.o(.text)
    _ll_sshift_r                             0x0803702d   Thumb Code     0  llsshr.o(.text)
    strtol                                   0x08037051   Thumb Code   112  strtol.o(.text)
    __I$use$fp                               0x080370c1   Thumb Code     0  iusefp.o(.text)
    _float_round                             0x080370c1   Thumb Code    18  fepilogue.o(.text)
    _float_epilogue                          0x080370d3   Thumb Code    92  fepilogue.o(.text)
    _double_round                            0x0803712f   Thumb Code    30  depilogue.o(.text)
    _double_epilogue                         0x0803714d   Thumb Code   156  depilogue.o(.text)
    __aeabi_ddiv                             0x080371e9   Thumb Code   222  ddiv.o(.text)
    _dsqrt                                   0x080372c7   Thumb Code   162  dsqrt.o(.text)
    __aeabi_d2ulz                            0x08037369   Thumb Code    48  dfixul.o(.text)
    __scatterload                            0x08037399   Thumb Code    28  init.o(.text)
    __scatterload_rt2                        0x08037399   Thumb Code     0  init.o(.text)
    __rt_ctype_table                         0x080373bd   Thumb Code     4  ctype_o.o(.text)
    _strtoul                                 0x080373c5   Thumb Code   158  _strtoul.o(.text)
    _chval                                   0x08037463   Thumb Code    28  _chval.o(.text)
    __decompress                             0x0803747f   Thumb Code     0  __dczerorl2.o(.text)
    __decompress1                            0x0803747f   Thumb Code    86  __dczerorl2.o(.text)
    __0printf                                0x080374d5   Thumb Code    22  printfa.o(i.__0printf)
    __1printf                                0x080374d5   Thumb Code     0  printfa.o(i.__0printf)
    __2printf                                0x080374d5   Thumb Code     0  printfa.o(i.__0printf)
    __c89printf                              0x080374d5   Thumb Code     0  printfa.o(i.__0printf)
    printf                                   0x080374d5   Thumb Code     0  printfa.o(i.__0printf)
    __0sprintf                               0x080374f5   Thumb Code    34  printfa.o(i.__0sprintf)
    __1sprintf                               0x080374f5   Thumb Code     0  printfa.o(i.__0sprintf)
    __2sprintf                               0x080374f5   Thumb Code     0  printfa.o(i.__0sprintf)
    __c89sprintf                             0x080374f5   Thumb Code     0  printfa.o(i.__0sprintf)
    sprintf                                  0x080374f5   Thumb Code     0  printfa.o(i.__0sprintf)
    __aeabi_errno_addr                       0x0803751d   Thumb Code     4  errno.o(i.__aeabi_errno_addr)
    __rt_errno_addr                          0x0803751d   Thumb Code     0  errno.o(i.__aeabi_errno_addr)
    __scatterload_copy                       0x08037525   Thumb Code    14  handlers.o(i.__scatterload_copy)
    __scatterload_null                       0x08037533   Thumb Code     2  handlers.o(i.__scatterload_null)
    __scatterload_zeroinit                   0x08037535   Thumb Code    14  handlers.o(i.__scatterload_zeroinit)
    __set_errno                              0x08037545   Thumb Code     6  errno.o(i.__set_errno)
    sqrt                                     0x08037e0d   Thumb Code    76  sqrt.o(i.sqrt)
    __lowest_bit_bitmap                      0x08038142   Data         256  kservice.o(.constdata)
    TX_ADDRESS                               0x08038526   Data           5  24l01.o(.constdata)
    RX_ADDRESS                               0x0803852b   Data           5  24l01.o(.constdata)
    FT5206_TPX_TBL                           0x08038530   Data          10  ft5206.o(.constdata)
    GT9147_CFG_TBL                           0x0803853a   Data         184  gt9147.o(.constdata)
    GT9147_TPX_TBL                           0x080385f2   Data          10  gt9147.o(.constdata)
    asc2_1206                                0x080385fc   Data        1140  lcd.o(.constdata)
    asc2_1608                                0x08038a70   Data        1520  lcd.o(.constdata)
    asc2_2412                                0x08039060   Data        3420  lcd.o(.constdata)
    asc2_3216                                0x08039dbc   Data       12160  lcd.o(.constdata)
    OTT_TPX_TBL                              0x0803cd3c   Data          10  ott2001a.o(.constdata)
    table_week                               0x0803cd46   Data          12  rtc.o(.constdata)
    mon_table                                0x0803cd52   Data          12  rtc.o(.constdata)
    TP_REMIND_MSG_TBL                        0x0803cd60   Data           4  touch.o(.constdata)
    AHBPrescTable                            0x0803cf50   Data          16  system_stm32f1xx.o(.constdata)
    APBPrescTable                            0x0803cf60   Data           8  system_stm32f1xx.o(.constdata)
    op_table                                 0x0803d1cc   Data         196  finsh_ops.o(.constdata)
    __stdin_name                             0x0803d2d0   Data           6  stubs.o(.constdata)
    __stdout_name                            0x0803d2d6   Data           7  stubs.o(.constdata)
    __stderr_name                            0x0803d2dd   Data           7  stubs.o(.constdata)
    tcp_state_str                            0x0803d41c   Data          44  tcp.o(.constdata)
    tcp_backoff                              0x0803d448   Data          13  tcp.o(.constdata)
    tcp_persist_backoff                      0x0803d455   Data           7  tcp.o(.constdata)
    tcp_pcb_lists                            0x0803d45c   Data          16  tcp.o(.constdata)
    ip_addr_any                              0x0803d46c   Data           4  ip_addr.o(.constdata)
    ip_addr_broadcast                        0x0803d470   Data           4  ip_addr.o(.constdata)
    ethbroadcast                             0x0803d474   Data           6  etharp.o(.constdata)
    ethzero                                  0x0803d47a   Data           6  etharp.o(.constdata)
    file__image_tab_jpg                      0x080505bc   Data          20  fs.o(.constdata)
    file__404_html                           0x080505d0   Data          20  fs.o(.constdata)
    file__alloff_shtml                       0x080505e4   Data          20  fs.o(.constdata)
    file__allon_shtml                        0x080505f8   Data          20  fs.o(.constdata)
    file__bedroomon_shtml                    0x0805060c   Data          20  fs.o(.constdata)
    file__bedroomon_corridoron_shtml         0x08050620   Data          20  fs.o(.constdata)
    file__beepon_shtml                       0x08050634   Data          20  fs.o(.constdata)
    file__beepon_Bedroomon_shtml             0x08050648   Data          20  fs.o(.constdata)
    file__beepon_bedroomon_corridoron_shtml  0x0805065c   Data          20  fs.o(.constdata)
    file__beepon_corridoron_shtml            0x08050670   Data          20  fs.o(.constdata)
    file__corridoron_shtml                   0x08050684   Data          20  fs.o(.constdata)
    file__index_html                         0x08050698   Data          20  fs.o(.constdata)
    file__modehome_shtml                     0x080506ac   Data          20  fs.o(.constdata)
    file__modehome_bedroomon_shtml           0x080506c0   Data          20  fs.o(.constdata)
    file__modehome_bedroomon_corridoron_shtml 0x080506d4   Data          20  fs.o(.constdata)
    file__modehome_beepon_shtml              0x080506e8   Data          20  fs.o(.constdata)
    file__modehome_beepon_bedroomon_shtml    0x080506fc   Data          20  fs.o(.constdata)
    file__modehome_beepon_corridoron_shtml   0x08050710   Data          20  fs.o(.constdata)
    file__modehome_corridoron_shtml          0x08050724   Data          20  fs.o(.constdata)
    file__STM32F103_ADC_sensor_status_shtml  0x08050738   Data          20  fs.o(.constdata)
    file__STM32F103_RTC_shtml                0x0805074c   Data          20  fs.o(.constdata)
    g_psDefaultFilenames                     0x08050760   Data          40  httpd.o(.constdata)
    g_pcTagLeadIn                            0x08050788   Data           4  httpd.o(.constdata)
    g_pcTagLeadOut                           0x0805078c   Data           4  httpd.o(.constdata)
    __ctype_table                            0x080507a8   Data         129  ctype_o.o(.constdata)
    __fsym_list_mem_name                     0x080510ea   Data           9  mem.o(.rodata.name)
    __fsym_list_mem_desc                     0x080510f3   Data          30  mem.o(.rodata.name)
    __fsym_pinMode_name                      0x08051111   Data           8  pin.o(.rodata.name)
    __fsym_pinMode_desc                      0x08051119   Data          22  pin.o(.rodata.name)
    __fsym_pinWrite_name                     0x0805112f   Data           9  pin.o(.rodata.name)
    __fsym_pinWrite_desc                     0x08051138   Data          28  pin.o(.rodata.name)
    __fsym_pinRead_name                      0x08051154   Data           8  pin.o(.rodata.name)
    __fsym_pinRead_desc                      0x0805115c   Data          30  pin.o(.rodata.name)
    __fsym_hello_name                        0x0805117a   Data           6  cmd.o(.rodata.name)
    __fsym_hello_desc                        0x08051180   Data          16  cmd.o(.rodata.name)
    __fsym_version_name                      0x08051190   Data           8  cmd.o(.rodata.name)
    __fsym_version_desc                      0x08051198   Data          35  cmd.o(.rodata.name)
    __fsym___cmd_version_name                0x080511bb   Data          14  cmd.o(.rodata.name)
    __fsym___cmd_version_desc                0x080511c9   Data          35  cmd.o(.rodata.name)
    __fsym_list_thread_name                  0x080511ec   Data          12  cmd.o(.rodata.name)
    __fsym_list_thread_desc                  0x080511f8   Data          12  cmd.o(.rodata.name)
    __fsym___cmd_list_thread_name            0x08051204   Data          18  cmd.o(.rodata.name)
    __fsym___cmd_list_thread_desc            0x08051216   Data          12  cmd.o(.rodata.name)
    __fsym_list_sem_name                     0x08051222   Data           9  cmd.o(.rodata.name)
    __fsym_list_sem_desc                     0x0805122b   Data          25  cmd.o(.rodata.name)
    __fsym___cmd_list_sem_name               0x08051244   Data          15  cmd.o(.rodata.name)
    __fsym___cmd_list_sem_desc               0x08051253   Data          25  cmd.o(.rodata.name)
    __fsym_list_event_name                   0x0805126c   Data          11  cmd.o(.rodata.name)
    __fsym_list_event_desc                   0x08051277   Data          21  cmd.o(.rodata.name)
    __fsym___cmd_list_event_name             0x0805128c   Data          17  cmd.o(.rodata.name)
    __fsym___cmd_list_event_desc             0x0805129d   Data          21  cmd.o(.rodata.name)
    __fsym_list_mutex_name                   0x080512b2   Data          11  cmd.o(.rodata.name)
    __fsym_list_mutex_desc                   0x080512bd   Data          21  cmd.o(.rodata.name)
    __fsym___cmd_list_mutex_name             0x080512d2   Data          17  cmd.o(.rodata.name)
    __fsym___cmd_list_mutex_desc             0x080512e3   Data          21  cmd.o(.rodata.name)
    __fsym_list_mailbox_name                 0x080512f8   Data          13  cmd.o(.rodata.name)
    __fsym_list_mailbox_desc                 0x08051305   Data          24  cmd.o(.rodata.name)
    __fsym___cmd_list_mailbox_name           0x0805131d   Data          19  cmd.o(.rodata.name)
    __fsym___cmd_list_mailbox_desc           0x08051330   Data          24  cmd.o(.rodata.name)
    __fsym_list_msgqueue_name                0x08051348   Data          14  cmd.o(.rodata.name)
    __fsym_list_msgqueue_desc                0x08051356   Data          29  cmd.o(.rodata.name)
    __fsym___cmd_list_msgqueue_name          0x08051373   Data          20  cmd.o(.rodata.name)
    __fsym___cmd_list_msgqueue_desc          0x08051387   Data          29  cmd.o(.rodata.name)
    __fsym_list_memheap_name                 0x080513a4   Data          13  cmd.o(.rodata.name)
    __fsym_list_memheap_desc                 0x080513b1   Data          27  cmd.o(.rodata.name)
    __fsym___cmd_list_memheap_name           0x080513cc   Data          19  cmd.o(.rodata.name)
    __fsym___cmd_list_memheap_desc           0x080513df   Data          27  cmd.o(.rodata.name)
    __fsym_list_mempool_name                 0x080513fa   Data          13  cmd.o(.rodata.name)
    __fsym_list_mempool_desc                 0x08051407   Data          27  cmd.o(.rodata.name)
    __fsym___cmd_list_mempool_name           0x08051422   Data          19  cmd.o(.rodata.name)
    __fsym___cmd_list_mempool_desc           0x08051435   Data          27  cmd.o(.rodata.name)
    __fsym_list_timer_name                   0x08051450   Data          11  cmd.o(.rodata.name)
    __fsym_list_timer_desc                   0x0805145b   Data          21  cmd.o(.rodata.name)
    __fsym___cmd_list_timer_name             0x08051470   Data          17  cmd.o(.rodata.name)
    __fsym___cmd_list_timer_desc             0x08051481   Data          21  cmd.o(.rodata.name)
    __fsym_list_device_name                  0x08051496   Data          12  cmd.o(.rodata.name)
    __fsym_list_device_desc                  0x080514a2   Data          22  cmd.o(.rodata.name)
    __fsym___cmd_list_device_name            0x080514b8   Data          18  cmd.o(.rodata.name)
    __fsym___cmd_list_device_desc            0x080514ca   Data          22  cmd.o(.rodata.name)
    __fsym_list_name                         0x080514e0   Data           5  cmd.o(.rodata.name)
    __fsym_list_desc                         0x080514e5   Data          26  cmd.o(.rodata.name)
    __vsym_dummy_name                        0x080514ff   Data           6  cmd.o(.rodata.name)
    __vsym_dummy_desc                        0x08051505   Data          25  cmd.o(.rodata.name)
    __fsym___cmd_exit_name                   0x0805151e   Data          11  msh.o(.rodata.name)
    __fsym___cmd_exit_desc                   0x08051529   Data          32  msh.o(.rodata.name)
    __fsym_msh_name                          0x08051549   Data           4  msh.o(.rodata.name)
    __fsym_msh_desc                          0x0805154d   Data          17  msh.o(.rodata.name)
    __fsym___cmd_help_name                   0x0805155e   Data          11  msh.o(.rodata.name)
    __fsym___cmd_help_desc                   0x08051569   Data          22  msh.o(.rodata.name)
    __fsym___cmd_ifconfig_name               0x0805157f   Data          15  msh_cmd.o(.rodata.name)
    __fsym___cmd_ifconfig_desc               0x0805158e   Data          43  msh_cmd.o(.rodata.name)
    __fsym___cmd_dns_name                    0x080515b9   Data          10  msh_cmd.o(.rodata.name)
    __fsym___cmd_dns_desc                    0x080515c3   Data          28  msh_cmd.o(.rodata.name)
    __fsym___cmd_netstat_name                0x080515df   Data          14  msh_cmd.o(.rodata.name)
    __fsym___cmd_netstat_desc                0x080515ed   Data          33  msh_cmd.o(.rodata.name)
    __fsym___cmd_ps_name                     0x0805160e   Data           9  msh_cmd.o(.rodata.name)
    __fsym___cmd_ps_desc                     0x08051617   Data          28  msh_cmd.o(.rodata.name)
    __fsym___cmd_time_name                   0x08051633   Data          11  msh_cmd.o(.rodata.name)
    __fsym___cmd_time_desc                   0x0805163e   Data          27  msh_cmd.o(.rodata.name)
    __fsym___cmd_free_name                   0x08051659   Data          11  msh_cmd.o(.rodata.name)
    __fsym___cmd_free_desc                   0x08051664   Data          37  msh_cmd.o(.rodata.name)
    __rt_init_rti_start                      0x0805168c   Data           4  components.o(.rti_fn.0)
    __rt_init_rti_board_start                0x08051690   Data           4  components.o(.rti_fn.0.end)
    __rt_init_rt_hw_pin_init                 0x08051694   Data           4  drv_gpio.o(.rti_fn.1)
    __rt_init_rt_hw_usart_init               0x08051698   Data           4  drv_usart.o(.rti_fn.1)
    __rt_init_rti_board_end                  0x0805169c   Data           4  components.o(.rti_fn.1.end)
    __rt_init_libc_system_init               0x080516a0   Data           4  libc.o(.rti_fn.4)
    __rt_init_finsh_system_init              0x080516a4   Data           4  shell.o(.rti_fn.6)
    __rt_init_rti_end                        0x080516a8   Data           4  components.o(.rti_fn.6.end)
    FSymTab$$Base                            0x080516ac   Number         0  mem.o(FSymTab)
    __fsym_list_mem                          0x080516ac   Data          12  mem.o(FSymTab)
    __fsym_pinMode                           0x080516b8   Data          12  pin.o(FSymTab)
    __fsym_pinWrite                          0x080516c4   Data          12  pin.o(FSymTab)
    __fsym_pinRead                           0x080516d0   Data          12  pin.o(FSymTab)
    __fsym_hello                             0x080516dc   Data          12  cmd.o(FSymTab)
    __fsym_version                           0x080516e8   Data          12  cmd.o(FSymTab)
    __fsym___cmd_version                     0x080516f4   Data          12  cmd.o(FSymTab)
    __fsym_list_thread                       0x08051700   Data          12  cmd.o(FSymTab)
    __fsym___cmd_list_thread                 0x0805170c   Data          12  cmd.o(FSymTab)
    __fsym_list_sem                          0x08051718   Data          12  cmd.o(FSymTab)
    __fsym___cmd_list_sem                    0x08051724   Data          12  cmd.o(FSymTab)
    __fsym_list_event                        0x08051730   Data          12  cmd.o(FSymTab)
    __fsym___cmd_list_event                  0x0805173c   Data          12  cmd.o(FSymTab)
    __fsym_list_mutex                        0x08051748   Data          12  cmd.o(FSymTab)
    __fsym___cmd_list_mutex                  0x08051754   Data          12  cmd.o(FSymTab)
    __fsym_list_mailbox                      0x08051760   Data          12  cmd.o(FSymTab)
    __fsym___cmd_list_mailbox                0x0805176c   Data          12  cmd.o(FSymTab)
    __fsym_list_msgqueue                     0x08051778   Data          12  cmd.o(FSymTab)
    __fsym___cmd_list_msgqueue               0x08051784   Data          12  cmd.o(FSymTab)
    __fsym_list_memheap                      0x08051790   Data          12  cmd.o(FSymTab)
    __fsym___cmd_list_memheap                0x0805179c   Data          12  cmd.o(FSymTab)
    __fsym_list_mempool                      0x080517a8   Data          12  cmd.o(FSymTab)
    __fsym___cmd_list_mempool                0x080517b4   Data          12  cmd.o(FSymTab)
    __fsym_list_timer                        0x080517c0   Data          12  cmd.o(FSymTab)
    __fsym___cmd_list_timer                  0x080517cc   Data          12  cmd.o(FSymTab)
    __fsym_list_device                       0x080517d8   Data          12  cmd.o(FSymTab)
    __fsym___cmd_list_device                 0x080517e4   Data          12  cmd.o(FSymTab)
    __fsym_list                              0x080517f0   Data          12  cmd.o(FSymTab)
    __fsym___cmd_exit                        0x080517fc   Data          12  msh.o(FSymTab)
    __fsym_msh                               0x08051808   Data          12  msh.o(FSymTab)
    __fsym___cmd_help                        0x08051814   Data          12  msh.o(FSymTab)
    __fsym___cmd_ifconfig                    0x08051820   Data          12  msh_cmd.o(FSymTab)
    __fsym___cmd_dns                         0x0805182c   Data          12  msh_cmd.o(FSymTab)
    __fsym___cmd_netstat                     0x08051838   Data          12  msh_cmd.o(FSymTab)
    __fsym___cmd_ps                          0x08051844   Data          12  msh_cmd.o(FSymTab)
    __fsym___cmd_time                        0x08051850   Data          12  msh_cmd.o(FSymTab)
    __fsym___cmd_free                        0x0805185c   Data          12  msh_cmd.o(FSymTab)
    FSymTab$$Limit                           0x08051868   Number         0  msh_cmd.o(FSymTab)
    Region$$Table$$Base                      0x08051868   Number         0  anon$$obj.o(Region$$Table)
    Region$$Table$$Limit                     0x08051888   Number         0  anon$$obj.o(Region$$Table)
    VSymTab$$Base                            0x08051888   Number         0  cmd.o(VSymTab)
    __vsym_dummy                             0x08051888   Data          16  cmd.o(VSymTab)
    VSymTab$$Limit                           0x08051898   Number         0  cmd.o(VSymTab)
    rt_interrupt_nest                        0x2000000c   Data           1  irq.o(.data)
    rt_assert_hook                           0x20000018   Data           4  kservice.o(.data)
    rt_object_trytake_hook                   0x200000ec   Data           4  object.o(.data)
    rt_object_take_hook                      0x200000f0   Data           4  object.o(.data)
    rt_object_put_hook                       0x200000f4   Data           4  object.o(.data)
    rt_current_thread                        0x200000fc   Data           4  scheduler.o(.data)
    rt_current_priority                      0x20000100   Data           1  scheduler.o(.data)
    rt_thread_ready_priority_group           0x20000104   Data           4  scheduler.o(.data)
    rt_thread_defunct                        0x20000108   Data           8  scheduler.o(.data)
    rt_interrupt_from_thread                 0x20000140   Data           4  cpuport.o(.data)
    rt_interrupt_to_thread                   0x20000144   Data           4  cpuport.o(.data)
    rt_thread_switch_interrupt_flag          0x20000148   Data           4  cpuport.o(.data)
    cmd_1A                                   0x20000150   Data           1  bsp_gsm.o(.data)
    POINT_COLOR                              0x20000168   Data           4  lcd.o(.data)
    BACK_COLOR                               0x2000016c   Data           4  lcd.o(.data)
    sys_status                               0x20000170   Data           1  main.o(.data)
    curtain_status                           0x20000171   Data           1  main.o(.data)
    temp                                     0x20000172   Data           1  main.o(.data)
    humi                                     0x20000173   Data           1  main.o(.data)
    len                                      0x20000174   Data           1  main.o(.data)
    temp_buffer                              0x20000175   Data           1  main.o(.data)
    humi_buffer                              0x20000176   Data           1  main.o(.data)
    MQ_buffer                                0x20000177   Data           1  main.o(.data)
    HZ_buffer                                0x20000178   Data           1  main.o(.data)
    mq                                       0x2000017c   Data           4  main.o(.data)
    LS1_VAL                                  0x20000180   Data           4  main.o(.data)
    hz                                       0x20000184   Data           4  main.o(.data)
    delta_mq                                 0x20000188   Data           4  main.o(.data)
    val                                      0x2000018c   Data           4  main.o(.data)
    color_flag                               0x20000190   Data           1  main.o(.data)
    mq_sem                                   0x20000194   Data           4  main.o(.data)
    GSM_sem_read                             0x20000198   Data           4  main.o(.data)
    RmtSta                                   0x200001a8   Data           1  remote.o(.data)
    Dval                                     0x200001aa   Data           2  remote.o(.data)
    RmtRec                                   0x200001ac   Data           4  remote.o(.data)
    RmtCnt                                   0x200001b0   Data           1  remote.o(.data)
    current_time                             0x200001b2   Data           8  rtc.o(.data)
    Set_time                                 0x200001ba   Data           8  rtc.o(.data)
    tp_dev                                   0x200001dc   Data          52  touch.o(.data)
    CMD_RDX                                  0x20000210   Data           1  touch.o(.data)
    CMD_RDY                                  0x20000211   Data           1  touch.o(.data)
    USART_RX_STA                             0x20000212   Data           2  usart.o(.data)
    USART_RX2_STA                            0x20000214   Data           2  usart.o(.data)
    aRxBuffer                                0x20000216   Data           1  usart.o(.data)
    aRx2Buffer                               0x20000217   Data           1  usart.o(.data)
    pin_irq_hdr_tab                          0x20000218   Data         192  drv_gpio.o(.data)
    uart1                                    0x200002d8   Data          68  drv_usart.o(.data)
    SystemCoreClock                          0x2000031c   Data           4  system_stm32f1xx.o(.data)
    uCRCErrorWorkaroundCheck                 0x20000320   Data           1  stm32f1xx_hal_spi_ex.o(.data)
    uwTick                                   0x20000324   Data           4  stm32f1xx_hal.o(.data)
    uwTickPrio                               0x20000328   Data           4  stm32f1xx_hal.o(.data)
    uwTickFreq                               0x2000032c   Data           1  stm32f1xx_hal.o(.data)
    shell                                    0x20000330   Data           4  shell.o(.data)
    _syscall_table_begin                     0x20000338   Data           4  symbol.o(.data)
    _syscall_table_end                       0x2000033c   Data           4  symbol.o(.data)
    _sysvar_table_begin                      0x20000340   Data           4  symbol.o(.data)
    _sysvar_table_end                        0x20000344   Data           4  symbol.o(.data)
    finsh_compile_sp                         0x20000350   Data           4  finsh_compiler.o(.data)
    finsh_compile_pc                         0x20000354   Data           4  finsh_compiler.o(.data)
    global_errno                             0x20000358   Data           1  finsh_error.o(.data)
    global_sysvar_list                       0x200003a0   Data           4  finsh_var.o(.data)
    finsh_sp                                 0x200003a4   Data           4  finsh_vm.o(.data)
    finsh_pc                                 0x200003a8   Data           4  finsh_vm.o(.data)
    global_syscall_list                      0x200003ac   Data           4  finsh_vm.o(.data)
    netif_list                               0x200003e4   Data           4  netif.o(.data)
    netif_default                            0x200003e8   Data           4  netif.o(.data)
    pbuf_free_ooseq_pending                  0x200003ed   Data           1  pbuf.o(.data)
    tcp_ticks                                0x200003f8   Data           4  tcp.o(.data)
    tcp_bound_pcbs                           0x200003fc   Data           4  tcp.o(.data)
    tcp_listen_pcbs                          0x20000400   Data           4  tcp.o(.data)
    tcp_active_pcbs                          0x20000404   Data           4  tcp.o(.data)
    tcp_tw_pcbs                              0x20000408   Data           4  tcp.o(.data)
    tcp_tmp_pcb                              0x2000040c   Data           4  tcp.o(.data)
    tcp_active_pcbs_changed                  0x20000410   Data           1  tcp.o(.data)
    tcp_input_pcb                            0x20000434   Data           4  tcp_in.o(.data)
    udp_pcbs                                 0x20000444   Data           4  udp.o(.data)
    current_netif                            0x20000454   Data           4  ip.o(.data)
    current_header                           0x20000458   Data           4  ip.o(.data)
    current_iphdr_src                        0x2000045c   Data           4  ip.o(.data)
    current_iphdr_dest                       0x20000460   Data           4  ip.o(.data)
    dm9000input                              0x20000468   Data           4  lwip_comm.o(.data)
    dm9000lock                               0x2000046c   Data           4  lwip_comm.o(.data)
    g_pcSSIExtensions                        0x20000470   Data          16  httpd.o(.data)
    g_pfnSSIHandler                          0x20000480   Data           4  httpd.o(.data)
    g_iNumTags                               0x20000484   Data           4  httpd.o(.data)
    g_ppcTags                                0x20000488   Data           4  httpd.o(.data)
    g_pCGIs                                  0x2000048c   Data           4  httpd.o(.data)
    g_iNumCGIs                               0x20000490   Data           4  httpd.o(.data)
    __stdout                                 0x200004b8   Data           4  stdout.o(.data)
    rt_thread_priority_table                 0x20000730   Data         256  scheduler.o(.bss)
    hadc3                                    0x20000ae4   Data          48  bsp_adc.o(.bss)
    hadc1                                    0x20000b14   Data          48  bsp_adc.o(.bss)
    adc1                                     0x20000b44   Data          48  bsp_adc.o(.bss)
    TIM5_Handler                             0x20000b74   Data          64  bsp_timer.o(.bss)
    DM9000_Handler                           0x20000bb4   Data          68  dm9000.o(.bss)
    dm9000cfg                                0x20000bf8   Data          18  dm9000.o(.bss)
    TFTSRAM_Handler                          0x20000c0c   Data          68  lcd.o(.bss)
    lcddev                                   0x20000c50   Data          14  lcd.o(.bss)
    TIM4_Handler                             0x200028b8   Data          64  remote.o(.bss)
    RTC_Handler                              0x200028f8   Data          20  rtc.o(.bss)
    calendar                                 0x2000290c   Data          10  rtc.o(.bss)
    SPI2_Handler                             0x2000292c   Data          88  spi.o(.bss)
    USART_RX_BUF                             0x20002984   Data        1024  usart.o(.bss)
    USART_RX2_BUF                            0x20002d84   Data        1024  usart.o(.bss)
    UART1_Handler                            0x20003184   Data          64  usart.o(.bss)
    UART2_Handler                            0x200031c4   Data          64  usart.o(.bss)
    serial1                                  0x20003204   Data         100  drv_usart.o(.bss)
    finsh_heap                               0x20003340   Data         128  finsh_heap.o(.bss)
    global_node_table                        0x200033c0   Data         320  finsh_node.o(.bss)
    global_variable                          0x20003500   Data         192  finsh_var.o(.bss)
    finsh_vm_stack                           0x200035c0   Data         256  finsh_vm.o(.bss)
    text_segment                             0x200036c0   Data         128  finsh_vm.o(.bss)
    dhcp_rx_options_val                      0x20003800   Data          40  dhcp.o(.bss)
    dhcp_rx_options_given                    0x20003828   Data          10  dhcp.o(.bss)
    lwipdev                                  0x2000b2ec   Data          23  lwip_comm.o(.bss)
    lwip_netif                               0x2000b304   Data          60  lwip_comm.o(.bss)
    fs_memory                                0x2000b340   Data         240  fs.o(.bss)
    Image$$RW_IRAM1$$ZI$$Limit               0x2000bc30   Number         0  anon$$obj.o ABSOLUTE
    __initial_sp                             0x2000bc30   Data           0  startup_stm32f103xe.o(STACK)



==============================================================================

Memory Map of the image

  Image Entry point : 0x08000131

  Load Region LR_IROM1 (Base: 0x08000000, Size: 0x00051d54, Max: 0x00080000, ABSOLUTE, COMPRESSED[0x00051990])

    Execution Region ER_IROM1 (Exec base: 0x08000000, Load base: 0x08000000, Size: 0x00051898, Max: 0x00080000, ABSOLUTE)

    Exec Addr    Load Addr    Size         Type   Attr      Idx    E Section Name        Object

    0x08000000   0x08000000   0x00000130   Data   RO         2713    RESET               startup_stm32f103xe.o
    0x08000130   0x08000130   0x00000000   Code   RO         4315  * .ARM.Collect$$$$00000000  mc_w.l(entry.o)
    0x08000130   0x08000130   0x00000004   Code   RO         4653    .ARM.Collect$$$$00000001  mc_w.l(entry2.o)
    0x08000134   0x08000134   0x00000004   Code   RO         4656    .ARM.Collect$$$$00000004  mc_w.l(entry5.o)
    0x08000138   0x08000138   0x00000000   Code   RO         4658    .ARM.Collect$$$$00000008  mc_w.l(entry7b.o)
    0x08000138   0x08000138   0x00000000   Code   RO         4660    .ARM.Collect$$$$0000000A  mc_w.l(entry8b.o)
    0x08000138   0x08000138   0x00000008   Code   RO         4661    .ARM.Collect$$$$0000000B  mc_w.l(entry9a.o)
    0x08000140   0x08000140   0x00000000   Code   RO         4663    .ARM.Collect$$$$0000000D  mc_w.l(entry10a.o)
    0x08000140   0x08000140   0x00000000   Code   RO         4665    .ARM.Collect$$$$0000000F  mc_w.l(entry11a.o)
    0x08000140   0x08000140   0x00000004   Code   RO         4654    .ARM.Collect$$$$00002712  mc_w.l(entry2.o)
    0x08000144   0x08000144   0x0000006c   Code   RO            1    .text               clock.o
    0x080001b0   0x080001b0   0x000000dc   Code   RO           82    .text               components.o
    0x0800028c   0x0800028c   0x00000548   Code   RO          101    .text               device.o
    0x080007d4   0x080007d4   0x000001d4   Code   RO          114    .text               idle.o
    0x080009a8   0x080009a8   0x00001c1c   Code   RO          133    .text               ipc.o
    0x080025c4   0x080025c4   0x0000007c   Code   RO          151    .text               irq.o
    0x08002640   0x08002640   0x00000ac0   Code   RO          166    .text               kservice.o
    0x08003100   0x08003100   0x000008f4   Code   RO          186    .text               mem.o
    0x080039f4   0x080039f4   0x000004f0   Code   RO          236    .text               mempool.o
    0x08003ee4   0x08003ee4   0x00000374   Code   RO          254    .text               object.o
    0x08004258   0x08004258   0x0000030c   Code   RO          273    .text               scheduler.o
    0x08004564   0x08004564   0x000005c8   Code   RO          294    .text               signal.o
    0x08004b2c   0x08004b2c   0x000007f8   Code   RO          324    .text               thread.o
    0x08005324   0x08005324   0x00000724   Code   RO          344    .text               timer.o
    0x08005a48   0x08005a48   0x000005e0   Code   RO          364    .text               cpuport.o
    0x08006028   0x08006028   0x000000f4   Code   RO          380    .text               context_rvds.o
    0x0800611c   0x0800611c   0x0000017a   Code   RO          422    .text               24cxx.o
    0x08006296   0x08006296   0x00000002   PAD
    0x08006298   0x08006298   0x00000378   Code   RO          475    .text               24l01.o
    0x08006610   0x08006610   0x000000a4   Code   RO          764    .text               beep.o
    0x080066b4   0x080066b4   0x000003b4   Code   RO          788    .text               bsp_adc.o
    0x08006a68   0x08006a68   0x000003e8   Code   RO          815    .text               bsp_ds18b20.o
    0x08006e50   0x08006e50   0x00000c84   Code   RO          842    .text               bsp_gsm.o
    0x08007ad4   0x08007ad4   0x00000394   Code   RO          895    .text               bsp_led.o
    0x08007e68   0x08007e68   0x00000050   Code   RO          920    .text               bsp_rsd.o
    0x08007eb8   0x08007eb8   0x000000e8   Code   RO          944    .text               bsp_timer.o
    0x08007fa0   0x08007fa0   0x00000058   Code   RO          974    .text               bsp_wb.o
    0x08007ff8   0x08007ff8   0x000002b0   Code   RO          998    .text               ctiic.o
    0x080082a8   0x080082a8   0x000000d0   Code   RO         1025    .text               delay.o
    0x08008378   0x08008378   0x000001a8   Code   RO         1051    .text               dht11.o
    0x08008520   0x08008520   0x0000086c   Code   RO         1075    .text               dm9000.o
    0x08008d8c   0x08008d8c   0x00000338   Code   RO         1132    .text               ft5206.o
    0x080090c4   0x080090c4   0x0000044c   Code   RO         1173    .text               gt9147.o
    0x08009510   0x08009510   0x0000386c   Code   RO         1201    .text               lcd.o
    0x0800cd7c   0x0800cd7c   0x0000148c   Code   RO         1266    .text               main.o
    0x0800e208   0x0800e208   0x0000027c   Code   RO         1294    .text               myiic.o
    0x0800e484   0x0800e484   0x0000036c   Code   RO         1318    .text               ott2001a.o
    0x0800e7f0   0x0800e7f0   0x00000106   Code   RO         1353    .text               public.o
    0x0800e8f6   0x0800e8f6   0x00000002   PAD
    0x0800e8f8   0x0800e8f8   0x000002f0   Code   RO         1377    .text               remote.o
    0x0800ebe8   0x0800ebe8   0x00001e7c   Code   RO         1408    .text               rtc.o
    0x08010a64   0x08010a64   0x00000118   Code   RO         1447    .text               spi.o
    0x08010b7c   0x08010b7c   0x00000fb4   Code   RO         1505    .text               touch.o
    0x08011b30   0x08011b30   0x00000274   Code   RO         1541    .text               usart.o
    0x08011da4   0x08011da4   0x00000288   Code   RO         1602    .text               board.o
    0x0801202c   0x0801202c   0x00000010   Code   RO         1628    .text               stm32f1xx_it.o
    0x0801203c   0x0801203c   0x000005e4   Code   RO         1655    .text               drv_gpio.o
    0x08012620   0x08012620   0x000002f8   Code   RO         1684    .text               drv_usart.o
    0x08012918   0x08012918   0x000000f4   Code   RO         1718    .text               system_stm32f1xx.o
    0x08012a0c   0x08012a0c   0x00000d8c   Code   RO         1749    .text               stm32f1xx_hal_adc.o
    0x08013798   0x08013798   0x000009d0   Code   RO         1773    .text               stm32f1xx_hal_adc_ex.o
    0x08014168   0x08014168   0x000004e8   Code   RO         1797    .text               stm32f1xx_hal_gpio.o
    0x08014650   0x08014650   0x00000ee4   Code   RO         1897    .text               stm32f1xx_hal_dma.o
    0x08015534   0x08015534   0x000002c4   Code   RO         1921    .text               stm32f1xx_hal_cortex.o
    0x080157f8   0x080157f8   0x00000208   Code   RO         2027    .text               stm32f1xx_hal_pwr.o
    0x08015a00   0x08015a00   0x0000098c   Code   RO         2051    .text               stm32f1xx_hal_rcc.o
    0x0801638c   0x0801638c   0x000002b4   Code   RO         2075    .text               stm32f1xx_hal_rcc_ex.o
    0x08016640   0x08016640   0x00000ad8   Code   RO         2099    .text               stm32f1xx_hal_rtc.o
    0x08017118   0x08017118   0x000002e8   Code   RO         2123    .text               stm32f1xx_hal_rtc_ex.o
    0x08017400   0x08017400   0x00001bfc   Code   RO         2165    .text               stm32f1xx_hal_spi.o
    0x08018ffc   0x08018ffc   0x000000b8   Code   RO         2189    .text               stm32f1xx_hal_spi_ex.o
    0x080190b4   0x080190b4   0x00002820   Code   RO         2216    .text               stm32f1xx_hal_tim.o
    0x0801b8d4   0x0801b8d4   0x00000cc0   Code   RO         2240    .text               stm32f1xx_hal_tim_ex.o
    0x0801c594   0x0801c594   0x0000120a   Code   RO         2264    .text               stm32f1xx_hal_uart.o
    0x0801d79e   0x0801d79e   0x00000002   PAD
    0x0801d7a0   0x0801d7a0   0x000001b4   Code   RO         2330    .text               stm32f1xx_hal.o
    0x0801d954   0x0801d954   0x000003dc   Code   RO         2375    .text               stm32f1xx_ll_fsmc.o
    0x0801dd30   0x0801dd30   0x00000380   Code   RO         2654    .text               stm32f1xx_hal_sram.o
    0x0801e0b0   0x0801e0b0   0x00000024   Code   RO         2714    .text               startup_stm32f103xe.o
    0x0801e0d4   0x0801e0d4   0x00000250   Code   RO         2718    .text               pin.o
    0x0801e324   0x0801e324   0x000006a0   Code   RO         2736    .text               serial.o
    0x0801e9c4   0x0801e9c4   0x000001cc   Code   RO         2752    .text               completion.o
    0x0801eb90   0x0801eb90   0x00000ae0   Code   RO         2864    .text               shell.o
    0x0801f670   0x0801f670   0x00000ea8   Code   RO         2905    .text               cmd.o
    0x08020518   0x08020518   0x00000384   Code   RO         2928    .text               msh.o
    0x0802089c   0x0802089c   0x0000013c   Code   RO         2946    .text               msh_cmd.o
    0x080209d8   0x080209d8   0x00001818   Code   RO         3000    .text               finsh_compiler.o
    0x080221f0   0x080221f0   0x0000002c   Code   RO         3037    .text               finsh_error.o
    0x0802221c   0x0802221c   0x00000210   Code   RO         3053    .text               finsh_heap.o
    0x0802242c   0x0802242c   0x00000058   Code   RO         3069    .text               finsh_init.o
    0x08022484   0x08022484   0x00000184   Code   RO         3087    .text               finsh_node.o
    0x08022608   0x08022608   0x00000ad8   Code   RO         3102    .text               finsh_ops.o
    0x080230e0   0x080230e0   0x0000097c   Code   RO         3120    .text               finsh_parser.o
    0x08023a5c   0x08023a5c   0x0000019c   Code   RO         3135    .text               finsh_var.o
    0x08023bf8   0x08023bf8   0x000000e4   Code   RO         3158    .text               finsh_vm.o
    0x08023cdc   0x08023cdc   0x00000680   Code   RO         3181    .text               finsh_token.o
    0x0802435c   0x0802435c   0x00000004   Code   RO         3196    .text               libc.o
    0x08024360   0x08024360   0x00000144   Code   RO         3229    .text               stubs.o
    0x080244a4   0x080244a4   0x00000d20   Code   RO         3281    .text               api_lib.o
    0x080251c4   0x080251c4   0x00001954   Code   RO         3357    .text               api_msg.o
    0x08026b18   0x08026b18   0x000003a8   Code   RO         3381    .text               netbuf.o
    0x08026ec0   0x08026ec0   0x00001db6   Code   RO         3463    .text               sockets.o
    0x08028c76   0x08028c76   0x00000002   PAD
    0x08028c78   0x08028c78   0x000003d4   Code   RO         3479    .text               tcpip.o
    0x0802904c   0x0802904c   0x0000059c   Code   RO         3530    .text               sys_arch.o
    0x080295e8   0x080295e8   0x0000003e   Code   RO         3593    .text               def.o
    0x08029626   0x08029626   0x00000002   PAD
    0x08029628   0x08029628   0x00001900   Code   RO         3605    .text               dhcp.o
    0x0802af28   0x0802af28   0x00000744   Code   RO         3622    .text               dns.o
    0x0802b66c   0x0802b66c   0x00000028   Code   RO         3645    .text               init.o
    0x0802b694   0x0802b694   0x000001a0   Code   RO         3682    .text               memp.o
    0x0802b834   0x0802b834   0x00000350   Code   RO         3712    .text               netif.o
    0x0802bb84   0x0802bb84   0x00000fb8   Code   RO         3737    .text               pbuf.o
    0x0802cb3c   0x0802cb3c   0x00000258   Code   RO         3785    .text               raw.o
    0x0802cd94   0x0802cd94   0x0000152c   Code   RO         3817    .text               tcp.o
    0x0802e2c0   0x0802e2c0   0x00001cfc   Code   RO         3844    .text               tcp_in.o
    0x0802ffbc   0x0802ffbc   0x00001240   Code   RO         3870    .text               tcp_out.o
    0x080311fc   0x080311fc   0x00000328   Code   RO         3883    .text               timers.o
    0x08031524   0x08031524   0x0000062c   Code   RO         3897    .text               udp.o
    0x08031b50   0x08031b50   0x000003e8   Code   RO         3932    .text               icmp.o
    0x08031f38   0x08031f38   0x000006c4   Code   RO         3944    .text               igmp.o
    0x080325fc   0x080325fc   0x0000028c   Code   RO         3967    .text               inet_chksum.o
    0x08032888   0x08032888   0x000004de   Code   RO         3979    .text               ip.o
    0x08032d66   0x08032d66   0x00000002   PAD
    0x08032d68   0x08032d68   0x00000310   Code   RO         3997    .text               ip_addr.o
    0x08033078   0x08033078   0x00000e94   Code   RO         4026    .text               etharp.o
    0x08033f0c   0x08033f0c   0x00000124   Code   RO         4050    .text               ethernetif.o
    0x08034030   0x08034030   0x0000062c   Code   RO         4101    .text               lwip_comm.o
    0x0803465c   0x0803465c   0x00000108   Code   RO         4181    .text               fs.o
    0x08034764   0x08034764   0x00001188   Code   RO         4209    .text               httpd.o
    0x080358ec   0x080358ec   0x00000f5c   Code   RO         4281    .text               httpd_cgi_ssi.o
    0x08036848   0x08036848   0x00000020   Code   RO         4318    .text               mc_w.l(llushr.o)
    0x08036868   0x08036868   0x00000024   Code   RO         4320    .text               mc_w.l(rand.o)
    0x0803688c   0x0803688c   0x00000024   Code   RO         4323    .text               mc_w.l(memcpya.o)
    0x080368b0   0x080368b0   0x00000024   Code   RO         4325    .text               mc_w.l(memseta.o)
    0x080368d4   0x080368d4   0x00000018   Code   RO         4327    .text               mc_w.l(strcat.o)
    0x080368ec   0x080368ec   0x00000024   Code   RO         4329    .text               mc_w.l(strstr.o)
    0x08036910   0x08036910   0x00000018   Code   RO         4331    .text               mc_w.l(strncpy.o)
    0x08036928   0x08036928   0x00000014   Code   RO         4333    .text               mc_w.l(strchr.o)
    0x0803693c   0x0803693c   0x0000000e   Code   RO         4335    .text               mc_w.l(strlen.o)
    0x0803694a   0x0803694a   0x0000001c   Code   RO         4337    .text               mc_w.l(strcmp.o)
    0x08036966   0x08036966   0x0000001a   Code   RO         4339    .text               mc_w.l(memcmp.o)
    0x08036980   0x08036980   0x00000012   Code   RO         4341    .text               mc_w.l(strcpy.o)
    0x08036992   0x08036992   0x0000001e   Code   RO         4343    .text               mc_w.l(strncmp.o)
    0x080369b0   0x080369b0   0x0000001a   Code   RO         4615    .text               mc_w.l(atoi.o)
    0x080369ca   0x080369ca   0x000000b0   Code   RO         4617    .text               mf_w.l(fadd.o)
    0x08036a7a   0x08036a7a   0x00000064   Code   RO         4619    .text               mf_w.l(fmul.o)
    0x08036ade   0x08036ade   0x0000007c   Code   RO         4621    .text               mf_w.l(fdiv.o)
    0x08036b5a   0x08036b5a   0x0000014e   Code   RO         4623    .text               mf_w.l(dadd.o)
    0x08036ca8   0x08036ca8   0x000000e4   Code   RO         4625    .text               mf_w.l(dmul.o)
    0x08036d8c   0x08036d8c   0x00000012   Code   RO         4627    .text               mf_w.l(fflti.o)
    0x08036d9e   0x08036d9e   0x0000000a   Code   RO         4629    .text               mf_w.l(ffltui.o)
    0x08036da8   0x08036da8   0x00000022   Code   RO         4631    .text               mf_w.l(dflti.o)
    0x08036dca   0x08036dca   0x0000001a   Code   RO         4633    .text               mf_w.l(dfltui.o)
    0x08036de4   0x08036de4   0x00000032   Code   RO         4635    .text               mf_w.l(ffixi.o)
    0x08036e16   0x08036e16   0x00000028   Code   RO         4637    .text               mf_w.l(ffixui.o)
    0x08036e3e   0x08036e3e   0x0000003e   Code   RO         4639    .text               mf_w.l(dfixi.o)
    0x08036e7c   0x08036e7c   0x00000032   Code   RO         4641    .text               mf_w.l(dfixui.o)
    0x08036eae   0x08036eae   0x00000026   Code   RO         4643    .text               mf_w.l(f2d.o)
    0x08036ed4   0x08036ed4   0x00000030   Code   RO         4645    .text               mf_w.l(cdcmple.o)
    0x08036f04   0x08036f04   0x00000030   Code   RO         4647    .text               mf_w.l(cdrcmple.o)
    0x08036f34   0x08036f34   0x00000038   Code   RO         4649    .text               mf_w.l(d2f.o)
    0x08036f6c   0x08036f6c   0x00000014   Code   RO         4651    .text               mf_w.l(cfcmple.o)
    0x08036f80   0x08036f80   0x0000002c   Code   RO         4668    .text               mc_w.l(uidiv.o)
    0x08036fac   0x08036fac   0x00000062   Code   RO         4670    .text               mc_w.l(uldiv.o)
    0x0803700e   0x0803700e   0x0000001e   Code   RO         4672    .text               mc_w.l(llshl.o)
    0x0803702c   0x0803702c   0x00000024   Code   RO         4674    .text               mc_w.l(llsshr.o)
    0x08037050   0x08037050   0x00000070   Code   RO         4676    .text               mc_w.l(strtol.o)
    0x080370c0   0x080370c0   0x00000000   Code   RO         4678    .text               mc_w.l(iusefp.o)
    0x080370c0   0x080370c0   0x0000006e   Code   RO         4679    .text               mf_w.l(fepilogue.o)
    0x0803712e   0x0803712e   0x000000ba   Code   RO         4681    .text               mf_w.l(depilogue.o)
    0x080371e8   0x080371e8   0x000000de   Code   RO         4683    .text               mf_w.l(ddiv.o)
    0x080372c6   0x080372c6   0x000000a2   Code   RO         4685    .text               mf_w.l(dsqrt.o)
    0x08037368   0x08037368   0x00000030   Code   RO         4687    .text               mf_w.l(dfixul.o)
    0x08037398   0x08037398   0x00000024   Code   RO         4689    .text               mc_w.l(init.o)
    0x080373bc   0x080373bc   0x00000008   Code   RO         4691    .text               mc_w.l(ctype_o.o)
    0x080373c4   0x080373c4   0x0000009e   Code   RO         4719    .text               mc_w.l(_strtoul.o)
    0x08037462   0x08037462   0x0000001c   Code   RO         4721    .text               mc_w.l(_chval.o)
    0x0803747e   0x0803747e   0x00000056   Code   RO         4731    .text               mc_w.l(__dczerorl2.o)
    0x080374d4   0x080374d4   0x00000020   Code   RO         4580    i.__0printf         mc_w.l(printfa.o)
    0x080374f4   0x080374f4   0x00000028   Code   RO         4582    i.__0sprintf        mc_w.l(printfa.o)
    0x0803751c   0x0803751c   0x00000008   Code   RO         4608    i.__aeabi_errno_addr  mc_w.l(errno.o)
    0x08037524   0x08037524   0x0000000e   Code   RO         4725    i.__scatterload_copy  mc_w.l(handlers.o)
    0x08037532   0x08037532   0x00000002   Code   RO         4726    i.__scatterload_null  mc_w.l(handlers.o)
    0x08037534   0x08037534   0x0000000e   Code   RO         4727    i.__scatterload_zeroinit  mc_w.l(handlers.o)
    0x08037542   0x08037542   0x00000002   PAD
    0x08037544   0x08037544   0x0000000c   Code   RO         4610    i.__set_errno       mc_w.l(errno.o)
    0x08037550   0x08037550   0x00000184   Code   RO         4587    i._fp_digits        mc_w.l(printfa.o)
    0x080376d4   0x080376d4   0x000006dc   Code   RO         4588    i._printf_core      mc_w.l(printfa.o)
    0x08037db0   0x08037db0   0x00000024   Code   RO         4589    i._printf_post_padding  mc_w.l(printfa.o)
    0x08037dd4   0x08037dd4   0x0000002e   Code   RO         4590    i._printf_pre_padding  mc_w.l(printfa.o)
    0x08037e02   0x08037e02   0x0000000a   Code   RO         4592    i._sputc            mc_w.l(printfa.o)
    0x08037e0c   0x08037e0c   0x0000004c   Code   RO         4308    i.sqrt              m_ws.l(sqrt.o)
    0x08037e58   0x08037e58   0x00000014   Data   RO           83    .constdata          components.o
    0x08037e6c   0x08037e6c   0x000000c9   Data   RO          102    .constdata          device.o
    0x08037f35   0x08037f35   0x00000016   Data   RO          116    .constdata          idle.o
    0x08037f4b   0x08037f4b   0x000001f7   Data   RO          134    .constdata          ipc.o
    0x08038142   0x08038142   0x00000122   Data   RO          168    .constdata          kservice.o
    0x08038264   0x08038264   0x00000046   Data   RO          188    .constdata          mem.o
    0x080382aa   0x080382aa   0x0000003e   Data   RO          237    .constdata          mempool.o
    0x080382e8   0x080382e8   0x00000080   Data   RO          255    .constdata          object.o
    0x08038368   0x08038368   0x0000004e   Data   RO          275    .constdata          scheduler.o
    0x080383b6   0x080383b6   0x00000048   Data   RO          295    .constdata          signal.o
    0x080383fe   0x080383fe   0x000000b9   Data   RO          325    .constdata          thread.o
    0x080384b7   0x080384b7   0x0000005c   Data   RO          346    .constdata          timer.o
    0x08038513   0x08038513   0x00000013   Data   RO          365    .constdata          cpuport.o
    0x08038526   0x08038526   0x0000000a   Data   RO          476    .constdata          24l01.o
    0x08038530   0x08038530   0x0000000a   Data   RO         1133    .constdata          ft5206.o
    0x0803853a   0x0803853a   0x000000c2   Data   RO         1174    .constdata          gt9147.o
    0x080385fc   0x080385fc   0x00004740   Data   RO         1203    .constdata          lcd.o
    0x0803cd3c   0x0803cd3c   0x0000000a   Data   RO         1319    .constdata          ott2001a.o
    0x0803cd46   0x0803cd46   0x00000018   Data   RO         1410    .constdata          rtc.o
    0x0803cd5e   0x0803cd5e   0x00000002   PAD
    0x0803cd60   0x0803cd60   0x00000004   Data   RO         1506    .constdata          touch.o
    0x0803cd64   0x0803cd64   0x00000013   Data   RO         1603    .constdata          board.o
    0x0803cd77   0x0803cd77   0x00000001   PAD
    0x0803cd78   0x0803cd78   0x0000017c   Data   RO         1656    .constdata          drv_gpio.o
    0x0803cef4   0x0803cef4   0x0000005c   Data   RO         1686    .constdata          drv_usart.o
    0x0803cf50   0x0803cf50   0x00000018   Data   RO         1719    .constdata          system_stm32f1xx.o
    0x0803cf68   0x0803cf68   0x0000007d   Data   RO         2720    .constdata          pin.o
    0x0803cfe5   0x0803cfe5   0x000000c4   Data   RO         2737    .constdata          serial.o
    0x0803d0a9   0x0803d0a9   0x00000039   Data   RO         2753    .constdata          completion.o
    0x0803d0e2   0x0803d0e2   0x00000087   Data   RO         2866    .constdata          shell.o
    0x0803d169   0x0803d169   0x00000003   PAD
    0x0803d16c   0x0803d16c   0x00000050   Data   RO         2906    .constdata          cmd.o
    0x0803d1bc   0x0803d1bc   0x0000000e   Data   RO         2929    .constdata          msh.o
    0x0803d1ca   0x0803d1ca   0x00000002   PAD
    0x0803d1cc   0x0803d1cc   0x000000c4   Data   RO         3103    .constdata          finsh_ops.o
    0x0803d290   0x0803d290   0x00000040   Data   RO         3182    .constdata          finsh_token.o
    0x0803d2d0   0x0803d2d0   0x0000001b   Data   RO         3230    .constdata          stubs.o
    0x0803d2eb   0x0803d2eb   0x00000001   PAD
    0x0803d2ec   0x0803d2ec   0x00000040   Data   RO         3465    .constdata          sockets.o
    0x0803d32c   0x0803d32c   0x000000b3   Data   RO         3531    .constdata          sys_arch.o
    0x0803d3df   0x0803d3df   0x00000001   PAD
    0x0803d3e0   0x0803d3e0   0x0000003c   Data   RO         3684    .constdata          memp.o
    0x0803d41c   0x0803d41c   0x00000050   Data   RO         3818    .constdata          tcp.o
    0x0803d46c   0x0803d46c   0x00000008   Data   RO         3999    .constdata          ip_addr.o
    0x0803d474   0x0803d474   0x0000000c   Data   RO         4028    .constdata          etharp.o
    0x0803d480   0x0803d480   0x000132e0   Data   RO         4183    .constdata          fs.o
    0x08050760   0x08050760   0x00000030   Data   RO         4211    .constdata          httpd.o
    0x08050790   0x08050790   0x00000018   Data   RO         4282    .constdata          httpd_cgi_ssi.o
    0x080507a8   0x080507a8   0x00000081   Data   RO         4692    .constdata          mc_w.l(ctype_o.o)
    0x08050829   0x08050829   0x00000003   PAD
    0x0805082c   0x0805082c   0x00000004   Data   RO         4693    .constdata          mc_w.l(ctype_o.o)
    0x08050830   0x08050830   0x0000015a   Data   RO          135    .conststring        ipc.o
    0x0805098a   0x0805098a   0x00000002   PAD
    0x0805098c   0x0805098c   0x000000ed   Data   RO          189    .conststring        mem.o
    0x08050a79   0x08050a79   0x00000003   PAD
    0x08050a7c   0x08050a7c   0x00000042   Data   RO          326    .conststring        thread.o
    0x08050abe   0x08050abe   0x00000002   PAD
    0x08050ac0   0x08050ac0   0x00000079   Data   RO         1507    .conststring        touch.o
    0x08050b39   0x08050b39   0x00000003   PAD
    0x08050b3c   0x08050b3c   0x00000043   Data   RO         1604    .conststring        board.o
    0x08050b7f   0x08050b7f   0x00000001   PAD
    0x08050b80   0x08050b80   0x0000015d   Data   RO         2907    .conststring        cmd.o
    0x08050cdd   0x08050cdd   0x00000003   PAD
    0x08050ce0   0x08050ce0   0x00000048   Data   RO         2947    .conststring        msh_cmd.o
    0x08050d28   0x08050d28   0x000000f3   Data   RO         3038    .conststring        finsh_error.o
    0x08050e1b   0x08050e1b   0x00000001   PAD
    0x08050e1c   0x08050e1c   0x0000003e   Data   RO         3183    .conststring        finsh_token.o
    0x08050e5a   0x08050e5a   0x00000002   PAD
    0x08050e5c   0x08050e5c   0x0000008c   Data   RO         3607    .conststring        dhcp.o
    0x08050ee8   0x08050ee8   0x00000075   Data   RO         3819    .conststring        tcp.o
    0x08050f5d   0x08050f5d   0x00000003   PAD
    0x08050f60   0x08050f60   0x00000055   Data   RO         3871    .conststring        tcp_out.o
    0x08050fb5   0x08050fb5   0x00000003   PAD
    0x08050fb8   0x08050fb8   0x00000044   Data   RO         4029    .conststring        etharp.o
    0x08050ffc   0x08050ffc   0x000000b2   Data   RO         4212    .conststring        httpd.o
    0x080510ae   0x080510ae   0x00000002   PAD
    0x080510b0   0x080510b0   0x0000003a   Data   RO         4283    .conststring        httpd_cgi_ssi.o
    0x080510ea   0x080510ea   0x00000027   Data   RO          191    .rodata.name        mem.o
    0x08051111   0x08051111   0x00000069   Data   RO         2721    .rodata.name        pin.o
    0x0805117a   0x0805117a   0x000003a4   Data   RO         2909    .rodata.name        cmd.o
    0x0805151e   0x0805151e   0x00000061   Data   RO         2931    .rodata.name        msh.o
    0x0805157f   0x0805157f   0x0000010a   Data   RO         2948    .rodata.name        msh_cmd.o
    0x08051689   0x08051689   0x00000003   PAD
    0x0805168c   0x0805168c   0x00000004   Data   RO           84    .rti_fn.0           components.o
    0x08051690   0x08051690   0x00000004   Data   RO           85    .rti_fn.0.end       components.o
    0x08051694   0x08051694   0x00000004   Data   RO         1658    .rti_fn.1           drv_gpio.o
    0x08051698   0x08051698   0x00000004   Data   RO         1688    .rti_fn.1           drv_usart.o
    0x0805169c   0x0805169c   0x00000004   Data   RO           86    .rti_fn.1.end       components.o
    0x080516a0   0x080516a0   0x00000004   Data   RO         3197    .rti_fn.4           libc.o
    0x080516a4   0x080516a4   0x00000004   Data   RO         2868    .rti_fn.6           shell.o
    0x080516a8   0x080516a8   0x00000004   Data   RO           87    .rti_fn.6.end       components.o
    0x080516ac   0x080516ac   0x0000000c   Data   RO          192    FSymTab             mem.o
    0x080516b8   0x080516b8   0x00000024   Data   RO         2722    FSymTab             pin.o
    0x080516dc   0x080516dc   0x00000120   Data   RO         2910    FSymTab             cmd.o
    0x080517fc   0x080517fc   0x00000024   Data   RO         2932    FSymTab             msh.o
    0x08051820   0x08051820   0x00000048   Data   RO         2949    FSymTab             msh_cmd.o
    0x08051868   0x08051868   0x00000020   Data   RO         4723    Region$$Table       anon$$obj.o
    0x08051888   0x08051888   0x00000010   Data   RO         2911    VSymTab             cmd.o


    Execution Region RW_IRAM1 (Exec base: 0x20000000, Load base: 0x08051898, Size: 0x0000bc30, Max: 0x00010000, ABSOLUTE, COMPRESSED[0x000000f8])

    Exec Addr    Load Addr    Size         Type   Attr      Idx    E Section Name        Object

    0x20000000   COMPRESSED   0x00000004   Data   RW            2    .data               clock.o
    0x20000004   COMPRESSED   0x00000009   Data   RW          152    .data               irq.o
    0x2000000d   COMPRESSED   0x00000003   PAD
    0x20000010   COMPRESSED   0x0000000c   Data   RW          169    .data               kservice.o
    0x2000001c   COMPRESSED   0x00000020   Data   RW          190    .data               mem.o
    0x2000003c   COMPRESSED   0x00000008   Data   RW          238    .data               mempool.o
    0x20000044   COMPRESSED   0x000000b4   Data   RW          256    .data               object.o
    0x200000f8   COMPRESSED   0x0000001c   Data   RW          276    .data               scheduler.o
    0x20000114   COMPRESSED   0x00000004   Data   RW          296    .data               signal.o
    0x20000118   COMPRESSED   0x0000000c   Data   RW          327    .data               thread.o
    0x20000124   COMPRESSED   0x0000001c   Data   RW          347    .data               timer.o
    0x20000140   COMPRESSED   0x00000010   Data   RW          366    .data               cpuport.o
    0x20000150   COMPRESSED   0x0000000c   Data   RW          843    .data               bsp_gsm.o
    0x2000015c   COMPRESSED   0x00000006   Data   RW          896    .data               bsp_led.o
    0x20000162   COMPRESSED   0x00000004   Data   RW         1026    .data               delay.o
    0x20000166   COMPRESSED   0x00000001   Data   RW         1134    .data               ft5206.o
    0x20000167   COMPRESSED   0x00000001   Data   RW         1175    .data               gt9147.o
    0x20000168   COMPRESSED   0x00000008   Data   RW         1204    .data               lcd.o
    0x20000170   COMPRESSED   0x00000034   Data   RW         1268    .data               main.o
    0x200001a4   COMPRESSED   0x00000001   Data   RW         1320    .data               ott2001a.o
    0x200001a5   COMPRESSED   0x00000003   PAD
    0x200001a8   COMPRESSED   0x00000009   Data   RW         1379    .data               remote.o
    0x200001b1   COMPRESSED   0x00000001   PAD
    0x200001b2   COMPRESSED   0x00000028   Data   RW         1411    .data               rtc.o
    0x200001da   COMPRESSED   0x00000002   PAD
    0x200001dc   COMPRESSED   0x00000036   Data   RW         1508    .data               touch.o
    0x20000212   COMPRESSED   0x00000006   Data   RW         1543    .data               usart.o
    0x20000218   COMPRESSED   0x000000c0   Data   RW         1657    .data               drv_gpio.o
    0x200002d8   COMPRESSED   0x00000044   Data   RW         1687    .data               drv_usart.o
    0x2000031c   COMPRESSED   0x00000004   Data   RW         1720    .data               system_stm32f1xx.o
    0x20000320   COMPRESSED   0x00000001   Data   RW         2190    .data               stm32f1xx_hal_spi_ex.o
    0x20000321   COMPRESSED   0x00000003   PAD
    0x20000324   COMPRESSED   0x00000009   Data   RW         2331    .data               stm32f1xx_hal.o
    0x2000032d   COMPRESSED   0x00000003   PAD
    0x20000330   COMPRESSED   0x00000008   Data   RW         2867    .data               shell.o
    0x20000338   COMPRESSED   0x00000010   Data   RW         2889    .data               symbol.o
    0x20000348   COMPRESSED   0x00000004   Data   RW         2908    .data               cmd.o
    0x2000034c   COMPRESSED   0x00000004   Data   RW         2930    .data               msh.o
    0x20000350   COMPRESSED   0x00000008   Data   RW         3001    .data               finsh_compiler.o
    0x20000358   COMPRESSED   0x00000040   Data   RW         3039    .data               finsh_error.o
    0x20000398   COMPRESSED   0x00000008   Data   RW         3055    .data               finsh_heap.o
    0x200003a0   COMPRESSED   0x00000004   Data   RW         3137    .data               finsh_var.o
    0x200003a4   COMPRESSED   0x0000000c   Data   RW         3160    .data               finsh_vm.o
    0x200003b0   COMPRESSED   0x00000008   Data   RW         3466    .data               sockets.o
    0x200003b8   COMPRESSED   0x0000000c   Data   RW         3480    .data               tcpip.o
    0x200003c4   COMPRESSED   0x00000006   Data   RW         3532    .data               sys_arch.o
    0x200003ca   COMPRESSED   0x00000002   PAD
    0x200003cc   COMPRESSED   0x00000004   Data   RW         3608    .data               dhcp.o
    0x200003d0   COMPRESSED   0x00000014   Data   RW         3624    .data               dns.o
    0x200003e4   COMPRESSED   0x00000009   Data   RW         3713    .data               netif.o
    0x200003ed   COMPRESSED   0x00000001   Data   RW         3738    .data               pbuf.o
    0x200003ee   COMPRESSED   0x00000002   PAD
    0x200003f0   COMPRESSED   0x00000004   Data   RW         3786    .data               raw.o
    0x200003f4   COMPRESSED   0x00000024   Data   RW         3820    .data               tcp.o
    0x20000418   COMPRESSED   0x00000020   Data   RW         3846    .data               tcp_in.o
    0x20000438   COMPRESSED   0x00000008   Data   RW         3884    .data               timers.o
    0x20000440   COMPRESSED   0x00000008   Data   RW         3898    .data               udp.o
    0x20000448   COMPRESSED   0x0000000c   Data   RW         3945    .data               igmp.o
    0x20000454   COMPRESSED   0x00000012   Data   RW         3980    .data               ip.o
    0x20000466   COMPRESSED   0x00000001   Data   RW         4030    .data               etharp.o
    0x20000467   COMPRESSED   0x00000001   PAD
    0x20000468   COMPRESSED   0x00000008   Data   RW         4103    .data               lwip_comm.o
    0x20000470   COMPRESSED   0x00000024   Data   RW         4213    .data               httpd.o
    0x20000494   COMPRESSED   0x0000001c   Data   RW         4284    .data               httpd_cgi_ssi.o
    0x200004b0   COMPRESSED   0x00000004   Data   RW         4321    .data               mc_w.l(rand.o)
    0x200004b4   COMPRESSED   0x00000004   Data   RW         4611    .data               mc_w.l(errno.o)
    0x200004b8   COMPRESSED   0x00000004   Data   RW         4667    .data               mc_w.l(stdout.o)
    0x200004bc        -       0x000001c4   Zero   RW          115    .bss                idle.o
    0x20000680        -       0x00000080   Zero   RW          167    .bss                kservice.o
    0x20000700        -       0x00000030   Zero   RW          187    .bss                mem.o
    0x20000730        -       0x00000100   Zero   RW          274    .bss                scheduler.o
    0x20000830        -       0x000002b4   Zero   RW          345    .bss                timer.o
    0x20000ae4        -       0x00000090   Zero   RW          789    .bss                bsp_adc.o
    0x20000b74        -       0x00000040   Zero   RW          945    .bss                bsp_timer.o
    0x20000bb4        -       0x00000056   Zero   RW         1076    .bss                dm9000.o
    0x20000c0a   COMPRESSED   0x00000002   PAD
    0x20000c0c        -       0x00000052   Zero   RW         1202    .bss                lcd.o
    0x20000c5e   COMPRESSED   0x00000002   PAD
    0x20000c60        -       0x00001c58   Zero   RW         1267    .bss                main.o
    0x200028b8        -       0x00000040   Zero   RW         1378    .bss                remote.o
    0x200028f8        -       0x00000032   Zero   RW         1409    .bss                rtc.o
    0x2000292a   COMPRESSED   0x00000002   PAD
    0x2000292c        -       0x00000058   Zero   RW         1448    .bss                spi.o
    0x20002984        -       0x00000880   Zero   RW         1542    .bss                usart.o
    0x20003204        -       0x00000064   Zero   RW         1685    .bss                drv_usart.o
    0x20003268        -       0x00000054   Zero   RW         2719    .bss                pin.o
    0x200032bc        -       0x00000081   Zero   RW         2865    .bss                shell.o
    0x2000333d   COMPRESSED   0x00000003   PAD
    0x20003340        -       0x00000080   Zero   RW         3054    .bss                finsh_heap.o
    0x200033c0        -       0x00000140   Zero   RW         3088    .bss                finsh_node.o
    0x20003500        -       0x000000c0   Zero   RW         3136    .bss                finsh_var.o
    0x200035c0        -       0x00000180   Zero   RW         3159    .bss                finsh_vm.o
    0x20003740        -       0x000000c0   Zero   RW         3464    .bss                sockets.o
    0x20003800        -       0x00000032   Zero   RW         3606    .bss                dhcp.o
    0x20003832   COMPRESSED   0x00000002   PAD
    0x20003834        -       0x00000663   Zero   RW         3623    .bss                dns.o
    0x20003e97   COMPRESSED   0x00000001   PAD
    0x20003e98        -       0x00006e03   Zero   RW         3683    .bss                memp.o
    0x2000ac9b   COMPRESSED   0x00000001   PAD
    0x2000ac9c        -       0x00000010   Zero   RW         3845    .bss                tcp_in.o
    0x2000acac        -       0x00000010   Zero   RW         3998    .bss                ip_addr.o
    0x2000acbc        -       0x000000c8   Zero   RW         4027    .bss                etharp.o
    0x2000ad84        -       0x000005bc   Zero   RW         4102    .bss                lwip_comm.o
    0x2000b340        -       0x000000f0   Zero   RW         4182    .bss                fs.o
    0x2000b430        -       0x00000400   Zero   RW         4210    .bss                httpd.o
    0x2000b830        -       0x00000400   Zero   RW         2711    STACK               startup_stm32f103xe.o


==============================================================================

Image component sizes


      Code (inc. data)   RO Data    RW Data    ZI Data      Debug   Object Name

       378          0          0          0          0     388186   24cxx.o
       888        100         10          0          0     143465   24l01.o
      3360        912          0          0          0      34683   api_lib.o
      6484       1246          0          0          0      12736   api_msg.o
         0          0          0          0          0       7676   app.o
       164         16          0          0          0       1005   beep.o
       648        166         86          0          0       1753   board.o
       948        204          0          0        144       2916   bsp_adc.o
      1000        116          0          0          0       3717   bsp_ds18b20.o
      3204        968          0         12          0       3028   bsp_gsm.o
       916        246          0          6          0       1720   bsp_led.o
        80         10          0          0          0        839   bsp_rsd.o
       232         20          0          0         64       1616   bsp_timer.o
        88         12          0          0          0        838   bsp_wb.o
       108          4          0          4          0      20890   clock.o
      3752       1430       1665          4          0      16776   cmd.o
       460        128         57          0          0       4759   completion.o
       220         42         36          0          0       2518   components.o
       244         26          0          0          0        780   context_rvds.o
      1504        720         19         16          0       4043   cpuport.o
       688         30          0          0          0       2481   ctiic.o
        62          0          0          0          0       1162   def.o
       208         12          0          4          0       1015   delay.o
      1352        314        201          0          0       5626   device.o
      6400       1070        140          4         50      13894   dhcp.o
       424         16          0          0          0       2110   dht11.o
      2156        384          0          0         86      11208   dm9000.o
      1860        264          0         20       1635      11360   dns.o
      1508         96        384        192          0       6894   drv_gpio.o
       760        126         96         68        100      25502   drv_usart.o
         0          0          0          0          0        728   err.o
      3732        604         80          1        200      10867   etharp.o
       292         84          0          0          0       3450   ethernetif.o
      6168        154          0          8          0       9822   finsh_compiler.o
        44         10        243         64          0       1629   finsh_error.o
       528         18          0          8        128       3391   finsh_heap.o
        88          6          0          0          0       1588   finsh_init.o
       388          4          0          0        320       3328   finsh_node.o
      2776         36        196          0          0       8680   finsh_ops.o
      2428         32          0          0          0       9733   finsh_parser.o
      1664         16        126          0          0       6236   finsh_token.o
       412         18          0          4        192       6309   finsh_var.o
       228         34          0         12        384       5388   finsh_vm.o
       264          8      78560          0        240       8219   fs.o
       824         42         10          1          0       2499   ft5206.o
      1100         76        194          1          0       3014   gt9147.o
      4488        720        226         36       1024      23926   httpd.o
      3932        780         82         28          0       7517   httpd_cgi_ssi.o
      1000        350          0          0          0       2535   icmp.o
       468         76         22          0        452       5416   idle.o
      1732        380          0         12          0       6978   igmp.o
       652         78          0          0          0       3201   inet_chksum.o
        40          0          0          0          0      11069   init.o
      1246        146          0         18          0       7512   ip.o
       784         82          8          0         16       9891   ip_addr.o
      7196       1036        849          0          0      22363   ipc.o
       124         14          0          9          0       1804   irq.o
      2752        232        290         12        128      12228   kservice.o
     14444        466      18240          8         82      22425   lcd.o
         4          0          4          0          0       1244   libc.o
      1580        746          0          8       1468      10568   lwip_comm.o
      5260       1702          0         52       7256       5836   main.o
      2292        644        358         32         48       8418   mem.o
       416        168         60          0      28163       2678   memp.o
      1264        264         62          8          0       7070   mempool.o
       900        142        147          4          0       4903   msh.o
       316        146        410          0          0      10442   msh_cmd.o
       636         18          0          0          0       2256   myiic.o
       936        318          0          0          0       3225   netbuf.o
         0          0          0          0          0       5228   netdb.o
       848        100          0          9          0       7043   netif.o
         0          0          0          0          0       6326   netifapi.o
       884        184        128        180          0       8291   object.o
       876         60         10          1          0       2667   ott2001a.o
      4024       1148          0          1          0      10127   pbuf.o
       592         92        266          0         84       5006   pin.o
       262          0          0          0          0       1637   public.o
       600        106          0          4          0       3593   raw.o
       752         36          0          9         64       2443   remote.o
      7804        874         24         40         50       8271   rtc.o
       780        152         78         28        256       6609   scheduler.o
      1696        186        196          0          0       6613   serial.o
      2784        282        139          8        129       7065   shell.o
      1480        174         72          4          0       8284   signal.o
      7606        642         64          8        192      19157   sockets.o
       280         18          0          0         88       1744   spi.o
        36          8        304          0       1024        864   startup_stm32f103xe.o
       436         36          0          9          0       7385   stm32f1xx_hal.o
      3468         98          0          0          0       9430   stm32f1xx_hal_adc.o
      2512         70          0          0          0       6598   stm32f1xx_hal_adc_ex.o
       708         22          0          0          0      27262   stm32f1xx_hal_cortex.o
      3812         40          0          0          0       6621   stm32f1xx_hal_dma.o
      1256         42          0          0          0       3883   stm32f1xx_hal_gpio.o
       520         20          0          0          0       4175   stm32f1xx_hal_pwr.o
      2444         94          0          0          0       5531   stm32f1xx_hal_rcc.o
       692         40          0          0          0       2280   stm32f1xx_hal_rcc_ex.o
      2776         18          0          0          0      10373   stm32f1xx_hal_rtc.o
       744          6          0          0          0       4577   stm32f1xx_hal_rtc_ex.o
      7164        118          0          0          0      19097   stm32f1xx_hal_spi.o
       184         10          0          1          0       1594   stm32f1xx_hal_spi_ex.o
       896          8          0          0          0       6208   stm32f1xx_hal_sram.o
     10272        124          0          0          0      32586   stm32f1xx_hal_tim.o
      3264         20          0          0          0      11768   stm32f1xx_hal_tim_ex.o
      4618         46          0          0          0      15864   stm32f1xx_hal_uart.o
        16          0          0          0          0        809   stm32f1xx_it.o
       988         16          0          0          0       5944   stm32f1xx_ll_fsmc.o
       324         20         27          0          0       6359   stubs.o
         0          0          0         16          0       5081   symbol.o
      1436        270        179          6          0      10246   sys_arch.o
       244         32         24          4          0       1701   system_stm32f1xx.o
      5420       1098        197         36          0      22816   tcp.o
      7420       1040          0         32         16      16535   tcp_in.o
      4672        834         85          0          0      10179   tcp_out.o
       980        162          0         12          0      21673   tcpip.o
      2040        416        251         12          0      10614   thread.o
      1828        312         92         28        692       9639   timer.o
       808        162          0          8          0       3891   timers.o
      4020        226        125         54          0       6917   touch.o
      1580        174          0          8          0      15129   udp.o
       628         94          0          6       2176       2608   usart.o

    ----------------------------------------------------------------------
    222980      28058     105192       1200      46964    1449923   Object Totals
         0          0         32          0          0          0   (incl. Generated)
        12          0         38         20         13          0   (incl. Padding)

    ----------------------------------------------------------------------

      Code (inc. data)   RO Data    RW Data    ZI Data      Debug   Library Member Name

        76          0          0          0          0         84   sqrt.o
        86          0          0          0          0          0   __dczerorl2.o
        28          0          0          0          0         68   _chval.o
       158          0          0          0          0         92   _strtoul.o
        26          0          0          0          0         80   atoi.o
         8          4        133          0          0         68   ctype_o.o
         0          0          0          0          0          0   entry.o
         0          0          0          0          0          0   entry10a.o
         0          0          0          0          0          0   entry11a.o
         8          4          0          0          0          0   entry2.o
         4          0          0          0          0          0   entry5.o
         0          0          0          0          0          0   entry7b.o
         0          0          0          0          0          0   entry8b.o
         8          4          0          0          0          0   entry9a.o
        20         10          0          4          0        136   errno.o
        30          0          0          0          0          0   handlers.o
        36          8          0          0          0         68   init.o
         0          0          0          0          0          0   iusefp.o
        30          0          0          0          0         68   llshl.o
        36          0          0          0          0         68   llsshr.o
        32          0          0          0          0         68   llushr.o
        26          0          0          0          0         80   memcmp.o
        36          0          0          0          0         68   memcpya.o
        36          0          0          0          0        108   memseta.o
      2308         96          0          0          0        604   printfa.o
        36         10          0          4          0        136   rand.o
         0          0          0          4          0          0   stdout.o
        24          0          0          0          0         68   strcat.o
        20          0          0          0          0         68   strchr.o
        28          0          0          0          0         76   strcmp.o
        18          0          0          0          0         68   strcpy.o
        14          0          0          0          0         68   strlen.o
        30          0          0          0          0         80   strncmp.o
        24          0          0          0          0         76   strncpy.o
        36          0          0          0          0         80   strstr.o
       112          0          0          0          0         88   strtol.o
        44          0          0          0          0         80   uidiv.o
        98          0          0          0          0         92   uldiv.o
        48          0          0          0          0         68   cdcmple.o
        48          0          0          0          0         68   cdrcmple.o
        20          0          0          0          0         68   cfcmple.o
        56          0          0          0          0         88   d2f.o
       334          0          0          0          0        148   dadd.o
       222          0          0          0          0        100   ddiv.o
       186          0          0          0          0        176   depilogue.o
        62          0          0          0          0         80   dfixi.o
        50          0          0          0          0         76   dfixui.o
        48          0          0          0          0         68   dfixul.o
        34          0          0          0          0         76   dflti.o
        26          0          0          0          0         76   dfltui.o
       228          0          0          0          0         96   dmul.o
       162          0          0          0          0        100   dsqrt.o
        38          0          0          0          0         68   f2d.o
       176          0          0          0          0        140   fadd.o
       124          0          0          0          0         88   fdiv.o
       110          0          0          0          0        168   fepilogue.o
        50          0          0          0          0         68   ffixi.o
        40          0          0          0          0         68   ffixui.o
        18          0          0          0          0         68   fflti.o
        10          0          0          0          0         68   ffltui.o
       100          0          0          0          0         76   fmul.o

    ----------------------------------------------------------------------
      5668        136        136         12          0       4740   Library Totals
         2          0          3          0          0          0   (incl. Padding)

    ----------------------------------------------------------------------

      Code (inc. data)   RO Data    RW Data    ZI Data      Debug   Library Name

        76          0          0          0          0         84   m_ws.l
      3400        136        133         12          0       2556   mc_w.l
      2190          0          0          0          0       2100   mf_w.l

    ----------------------------------------------------------------------
      5668        136        136         12          0       4740   Library Totals

    ----------------------------------------------------------------------

==============================================================================


      Code (inc. data)   RO Data    RW Data    ZI Data      Debug   

    228648      28194     105328       1212      46964    1441687   Grand Totals
    228648      28194     105328        248      46964    1441687   ELF Image Totals (compressed)
    228648      28194     105328        248          0          0   ROM Totals

==============================================================================

    Total RO  Size (Code + RO Data)               333976 ( 326.15kB)
    Total RW  Size (RW Data + ZI Data)             48176 (  47.05kB)
    Total ROM Size (Code + RO Data + RW Data)     334224 ( 326.39kB)

==============================================================================

